   1                     ; C Compiler for STM8 (COSMIC Software)
   2                     ; Parser V4.11.9 - 08 Feb 2017
   3                     ; Generator (Limited) V4.4.6 - 08 Feb 2017
   4                     ; Optimizer V4.4.6 - 08 Feb 2017
  19                     .const:	section	.text
  20  0000               L3_font_regular:
  21  0000 00            	dc.b	0
  22  0001 00            	dc.b	0
  23  0002 00            	dc.b	0
  24  0003 00            	dc.b	0
  25  0004 00            	dc.b	0
  26  0005 00            	dc.b	0
  27  0006 00            	dc.b	0
  28  0007 00            	dc.b	0
  29  0008 00            	dc.b	0
  30  0009 2f            	dc.b	47
  31  000a 00            	dc.b	0
  32  000b 00            	dc.b	0
  33  000c 00            	dc.b	0
  34  000d 00            	dc.b	0
  35  000e 07            	dc.b	7
  36  000f 00            	dc.b	0
  37  0010 07            	dc.b	7
  38  0011 00            	dc.b	0
  39  0012 00            	dc.b	0
  40  0013 14            	dc.b	20
  41  0014 7f            	dc.b	127
  42  0015 14            	dc.b	20
  43  0016 7f            	dc.b	127
  44  0017 14            	dc.b	20
  45  0018 00            	dc.b	0
  46  0019 24            	dc.b	36
  47  001a 2a            	dc.b	42
  48  001b 7f            	dc.b	127
  49  001c 2a            	dc.b	42
  50  001d 12            	dc.b	18
  51  001e 00            	dc.b	0
  52  001f 62            	dc.b	98
  53  0020 64            	dc.b	100
  54  0021 08            	dc.b	8
  55  0022 13            	dc.b	19
  56  0023 23            	dc.b	35
  57  0024 00            	dc.b	0
  58  0025 36            	dc.b	54
  59  0026 49            	dc.b	73
  60  0027 55            	dc.b	85
  61  0028 22            	dc.b	34
  62  0029 50            	dc.b	80
  63  002a 00            	dc.b	0
  64  002b 00            	dc.b	0
  65  002c 05            	dc.b	5
  66  002d 03            	dc.b	3
  67  002e 00            	dc.b	0
  68  002f 00            	dc.b	0
  69  0030 00            	dc.b	0
  70  0031 00            	dc.b	0
  71  0032 1c            	dc.b	28
  72  0033 22            	dc.b	34
  73  0034 41            	dc.b	65
  74  0035 00            	dc.b	0
  75  0036 00            	dc.b	0
  76  0037 00            	dc.b	0
  77  0038 41            	dc.b	65
  78  0039 22            	dc.b	34
  79  003a 1c            	dc.b	28
  80  003b 00            	dc.b	0
  81  003c 00            	dc.b	0
  82  003d 14            	dc.b	20
  83  003e 08            	dc.b	8
  84  003f 3e            	dc.b	62
  85  0040 08            	dc.b	8
  86  0041 14            	dc.b	20
  87  0042 00            	dc.b	0
  88  0043 08            	dc.b	8
  89  0044 08            	dc.b	8
  90  0045 3e            	dc.b	62
  91  0046 08            	dc.b	8
  92  0047 08            	dc.b	8
  93  0048 00            	dc.b	0
  94  0049 00            	dc.b	0
  95  004a 00            	dc.b	0
  96  004b a0            	dc.b	160
  97  004c 60            	dc.b	96
  98  004d 00            	dc.b	0
  99  004e 00            	dc.b	0
 100  004f 08            	dc.b	8
 101  0050 08            	dc.b	8
 102  0051 08            	dc.b	8
 103  0052 08            	dc.b	8
 104  0053 08            	dc.b	8
 105  0054 00            	dc.b	0
 106  0055 00            	dc.b	0
 107  0056 60            	dc.b	96
 108  0057 60            	dc.b	96
 109  0058 00            	dc.b	0
 110  0059 00            	dc.b	0
 111  005a 00            	dc.b	0
 112  005b 20            	dc.b	32
 113  005c 10            	dc.b	16
 114  005d 08            	dc.b	8
 115  005e 04            	dc.b	4
 116  005f 02            	dc.b	2
 117  0060 00            	dc.b	0
 118  0061 3e            	dc.b	62
 119  0062 51            	dc.b	81
 120  0063 49            	dc.b	73
 121  0064 45            	dc.b	69
 122  0065 3e            	dc.b	62
 123  0066 00            	dc.b	0
 124  0067 00            	dc.b	0
 125  0068 42            	dc.b	66
 126  0069 7f            	dc.b	127
 127  006a 40            	dc.b	64
 128  006b 00            	dc.b	0
 129  006c 00            	dc.b	0
 130  006d 42            	dc.b	66
 131  006e 61            	dc.b	97
 132  006f 51            	dc.b	81
 133  0070 49            	dc.b	73
 134  0071 46            	dc.b	70
 135  0072 00            	dc.b	0
 136  0073 21            	dc.b	33
 137  0074 41            	dc.b	65
 138  0075 45            	dc.b	69
 139  0076 4b            	dc.b	75
 140  0077 31            	dc.b	49
 141  0078 00            	dc.b	0
 142  0079 18            	dc.b	24
 143  007a 14            	dc.b	20
 144  007b 12            	dc.b	18
 145  007c 7f            	dc.b	127
 146  007d 10            	dc.b	16
 147  007e 00            	dc.b	0
 148  007f 27            	dc.b	39
 149  0080 45            	dc.b	69
 150  0081 45            	dc.b	69
 151  0082 45            	dc.b	69
 152  0083 39            	dc.b	57
 153  0084 00            	dc.b	0
 154  0085 3c            	dc.b	60
 155  0086 4a            	dc.b	74
 156  0087 49            	dc.b	73
 157  0088 49            	dc.b	73
 158  0089 30            	dc.b	48
 159  008a 00            	dc.b	0
 160  008b 01            	dc.b	1
 161  008c 71            	dc.b	113
 162  008d 09            	dc.b	9
 163  008e 05            	dc.b	5
 164  008f 03            	dc.b	3
 165  0090 00            	dc.b	0
 166  0091 36            	dc.b	54
 167  0092 49            	dc.b	73
 168  0093 49            	dc.b	73
 169  0094 49            	dc.b	73
 170  0095 36            	dc.b	54
 171  0096 00            	dc.b	0
 172  0097 06            	dc.b	6
 173  0098 49            	dc.b	73
 174  0099 49            	dc.b	73
 175  009a 29            	dc.b	41
 176  009b 1e            	dc.b	30
 177  009c 00            	dc.b	0
 178  009d 00            	dc.b	0
 179  009e 36            	dc.b	54
 180  009f 36            	dc.b	54
 181  00a0 00            	dc.b	0
 182  00a1 00            	dc.b	0
 183  00a2 00            	dc.b	0
 184  00a3 00            	dc.b	0
 185  00a4 56            	dc.b	86
 186  00a5 36            	dc.b	54
 187  00a6 00            	dc.b	0
 188  00a7 00            	dc.b	0
 189  00a8 00            	dc.b	0
 190  00a9 08            	dc.b	8
 191  00aa 14            	dc.b	20
 192  00ab 22            	dc.b	34
 193  00ac 41            	dc.b	65
 194  00ad 00            	dc.b	0
 195  00ae 00            	dc.b	0
 196  00af 14            	dc.b	20
 197  00b0 14            	dc.b	20
 198  00b1 14            	dc.b	20
 199  00b2 14            	dc.b	20
 200  00b3 14            	dc.b	20
 201  00b4 00            	dc.b	0
 202  00b5 00            	dc.b	0
 203  00b6 41            	dc.b	65
 204  00b7 22            	dc.b	34
 205  00b8 14            	dc.b	20
 206  00b9 08            	dc.b	8
 207  00ba 00            	dc.b	0
 208  00bb 02            	dc.b	2
 209  00bc 01            	dc.b	1
 210  00bd 51            	dc.b	81
 211  00be 09            	dc.b	9
 212  00bf 06            	dc.b	6
 213  00c0 00            	dc.b	0
 214  00c1 32            	dc.b	50
 215  00c2 49            	dc.b	73
 216  00c3 59            	dc.b	89
 217  00c4 51            	dc.b	81
 218  00c5 3e            	dc.b	62
 219  00c6 00            	dc.b	0
 220  00c7 7c            	dc.b	124
 221  00c8 12            	dc.b	18
 222  00c9 11            	dc.b	17
 223  00ca 12            	dc.b	18
 224  00cb 7c            	dc.b	124
 225  00cc 00            	dc.b	0
 226  00cd 7f            	dc.b	127
 227  00ce 49            	dc.b	73
 228  00cf 49            	dc.b	73
 229  00d0 49            	dc.b	73
 230  00d1 36            	dc.b	54
 231  00d2 00            	dc.b	0
 232  00d3 3e            	dc.b	62
 233  00d4 41            	dc.b	65
 234  00d5 41            	dc.b	65
 235  00d6 41            	dc.b	65
 236  00d7 22            	dc.b	34
 237  00d8 00            	dc.b	0
 238  00d9 7f            	dc.b	127
 239  00da 41            	dc.b	65
 240  00db 41            	dc.b	65
 241  00dc 22            	dc.b	34
 242  00dd 1c            	dc.b	28
 243  00de 00            	dc.b	0
 244  00df 7f            	dc.b	127
 245  00e0 49            	dc.b	73
 246  00e1 49            	dc.b	73
 247  00e2 49            	dc.b	73
 248  00e3 41            	dc.b	65
 249  00e4 00            	dc.b	0
 250  00e5 7f            	dc.b	127
 251  00e6 09            	dc.b	9
 252  00e7 09            	dc.b	9
 253  00e8 09            	dc.b	9
 254  00e9 01            	dc.b	1
 255  00ea 00            	dc.b	0
 256  00eb 3e            	dc.b	62
 257  00ec 41            	dc.b	65
 258  00ed 49            	dc.b	73
 259  00ee 49            	dc.b	73
 260  00ef 7a            	dc.b	122
 261  00f0 00            	dc.b	0
 262  00f1 7f            	dc.b	127
 263  00f2 08            	dc.b	8
 264  00f3 08            	dc.b	8
 265  00f4 08            	dc.b	8
 266  00f5 7f            	dc.b	127
 267  00f6 00            	dc.b	0
 268  00f7 00            	dc.b	0
 269  00f8 41            	dc.b	65
 270  00f9 7f            	dc.b	127
 271  00fa 41            	dc.b	65
 272  00fb 00            	dc.b	0
 273  00fc 00            	dc.b	0
 274  00fd 20            	dc.b	32
 275  00fe 40            	dc.b	64
 276  00ff 41            	dc.b	65
 277  0100 3f            	dc.b	63
 278  0101 01            	dc.b	1
 279  0102 00            	dc.b	0
 280  0103 7f            	dc.b	127
 281  0104 08            	dc.b	8
 282  0105 14            	dc.b	20
 283  0106 22            	dc.b	34
 284  0107 41            	dc.b	65
 285  0108 00            	dc.b	0
 286  0109 7f            	dc.b	127
 287  010a 40            	dc.b	64
 288  010b 40            	dc.b	64
 289  010c 40            	dc.b	64
 290  010d 40            	dc.b	64
 291  010e 00            	dc.b	0
 292  010f 7f            	dc.b	127
 293  0110 02            	dc.b	2
 294  0111 0c            	dc.b	12
 295  0112 02            	dc.b	2
 296  0113 7f            	dc.b	127
 297  0114 00            	dc.b	0
 298  0115 7f            	dc.b	127
 299  0116 04            	dc.b	4
 300  0117 08            	dc.b	8
 301  0118 10            	dc.b	16
 302  0119 7f            	dc.b	127
 303  011a 00            	dc.b	0
 304  011b 3e            	dc.b	62
 305  011c 41            	dc.b	65
 306  011d 41            	dc.b	65
 307  011e 41            	dc.b	65
 308  011f 3e            	dc.b	62
 309  0120 00            	dc.b	0
 310  0121 7f            	dc.b	127
 311  0122 09            	dc.b	9
 312  0123 09            	dc.b	9
 313  0124 09            	dc.b	9
 314  0125 06            	dc.b	6
 315  0126 00            	dc.b	0
 316  0127 3e            	dc.b	62
 317  0128 41            	dc.b	65
 318  0129 51            	dc.b	81
 319  012a 21            	dc.b	33
 320  012b 5e            	dc.b	94
 321  012c 00            	dc.b	0
 322  012d 7f            	dc.b	127
 323  012e 09            	dc.b	9
 324  012f 19            	dc.b	25
 325  0130 29            	dc.b	41
 326  0131 46            	dc.b	70
 327  0132 00            	dc.b	0
 328  0133 46            	dc.b	70
 329  0134 49            	dc.b	73
 330  0135 49            	dc.b	73
 331  0136 49            	dc.b	73
 332  0137 31            	dc.b	49
 333  0138 00            	dc.b	0
 334  0139 01            	dc.b	1
 335  013a 01            	dc.b	1
 336  013b 7f            	dc.b	127
 337  013c 01            	dc.b	1
 338  013d 01            	dc.b	1
 339  013e 00            	dc.b	0
 340  013f 3f            	dc.b	63
 341  0140 40            	dc.b	64
 342  0141 40            	dc.b	64
 343  0142 40            	dc.b	64
 344  0143 3f            	dc.b	63
 345  0144 00            	dc.b	0
 346  0145 1f            	dc.b	31
 347  0146 20            	dc.b	32
 348  0147 40            	dc.b	64
 349  0148 20            	dc.b	32
 350  0149 1f            	dc.b	31
 351  014a 00            	dc.b	0
 352  014b 3f            	dc.b	63
 353  014c 40            	dc.b	64
 354  014d 38            	dc.b	56
 355  014e 40            	dc.b	64
 356  014f 3f            	dc.b	63
 357  0150 00            	dc.b	0
 358  0151 63            	dc.b	99
 359  0152 14            	dc.b	20
 360  0153 08            	dc.b	8
 361  0154 14            	dc.b	20
 362  0155 63            	dc.b	99
 363  0156 00            	dc.b	0
 364  0157 07            	dc.b	7
 365  0158 08            	dc.b	8
 366  0159 70            	dc.b	112
 367  015a 08            	dc.b	8
 368  015b 07            	dc.b	7
 369  015c 00            	dc.b	0
 370  015d 61            	dc.b	97
 371  015e 51            	dc.b	81
 372  015f 49            	dc.b	73
 373  0160 45            	dc.b	69
 374  0161 43            	dc.b	67
 375  0162 00            	dc.b	0
 376  0163 00            	dc.b	0
 377  0164 7f            	dc.b	127
 378  0165 41            	dc.b	65
 379  0166 41            	dc.b	65
 380  0167 00            	dc.b	0
 381  0168 00            	dc.b	0
 382  0169 02            	dc.b	2
 383  016a 04            	dc.b	4
 384  016b 08            	dc.b	8
 385  016c 10            	dc.b	16
 386  016d 20            	dc.b	32
 387  016e 00            	dc.b	0
 388  016f 00            	dc.b	0
 389  0170 41            	dc.b	65
 390  0171 41            	dc.b	65
 391  0172 7f            	dc.b	127
 392  0173 00            	dc.b	0
 393  0174 00            	dc.b	0
 394  0175 04            	dc.b	4
 395  0176 02            	dc.b	2
 396  0177 01            	dc.b	1
 397  0178 02            	dc.b	2
 398  0179 04            	dc.b	4
 399  017a 00            	dc.b	0
 400  017b 40            	dc.b	64
 401  017c 40            	dc.b	64
 402  017d 40            	dc.b	64
 403  017e 40            	dc.b	64
 404  017f 40            	dc.b	64
 405  0180 00            	dc.b	0
 406  0181 00            	dc.b	0
 407  0182 01            	dc.b	1
 408  0183 02            	dc.b	2
 409  0184 04            	dc.b	4
 410  0185 00            	dc.b	0
 411  0186 00            	dc.b	0
 412  0187 20            	dc.b	32
 413  0188 54            	dc.b	84
 414  0189 54            	dc.b	84
 415  018a 54            	dc.b	84
 416  018b 78            	dc.b	120
 417  018c 00            	dc.b	0
 418  018d 7f            	dc.b	127
 419  018e 48            	dc.b	72
 420  018f 44            	dc.b	68
 421  0190 44            	dc.b	68
 422  0191 38            	dc.b	56
 423  0192 00            	dc.b	0
 424  0193 38            	dc.b	56
 425  0194 44            	dc.b	68
 426  0195 44            	dc.b	68
 427  0196 44            	dc.b	68
 428  0197 20            	dc.b	32
 429  0198 00            	dc.b	0
 430  0199 38            	dc.b	56
 431  019a 44            	dc.b	68
 432  019b 44            	dc.b	68
 433  019c 48            	dc.b	72
 434  019d 7f            	dc.b	127
 435  019e 00            	dc.b	0
 436  019f 38            	dc.b	56
 437  01a0 54            	dc.b	84
 438  01a1 54            	dc.b	84
 439  01a2 54            	dc.b	84
 440  01a3 18            	dc.b	24
 441  01a4 00            	dc.b	0
 442  01a5 08            	dc.b	8
 443  01a6 7e            	dc.b	126
 444  01a7 09            	dc.b	9
 445  01a8 01            	dc.b	1
 446  01a9 02            	dc.b	2
 447  01aa 00            	dc.b	0
 448  01ab 18            	dc.b	24
 449  01ac a4            	dc.b	164
 450  01ad a4            	dc.b	164
 451  01ae a4            	dc.b	164
 452  01af 7c            	dc.b	124
 453  01b0 00            	dc.b	0
 454  01b1 7f            	dc.b	127
 455  01b2 08            	dc.b	8
 456  01b3 04            	dc.b	4
 457  01b4 04            	dc.b	4
 458  01b5 78            	dc.b	120
 459  01b6 00            	dc.b	0
 460  01b7 00            	dc.b	0
 461  01b8 44            	dc.b	68
 462  01b9 7d            	dc.b	125
 463  01ba 40            	dc.b	64
 464  01bb 00            	dc.b	0
 465  01bc 00            	dc.b	0
 466  01bd 40            	dc.b	64
 467  01be 80            	dc.b	128
 468  01bf 84            	dc.b	132
 469  01c0 7d            	dc.b	125
 470  01c1 00            	dc.b	0
 471  01c2 00            	dc.b	0
 472  01c3 7f            	dc.b	127
 473  01c4 10            	dc.b	16
 474  01c5 28            	dc.b	40
 475  01c6 44            	dc.b	68
 476  01c7 00            	dc.b	0
 477  01c8 00            	dc.b	0
 478  01c9 00            	dc.b	0
 479  01ca 41            	dc.b	65
 480  01cb 7f            	dc.b	127
 481  01cc 40            	dc.b	64
 482  01cd 00            	dc.b	0
 483  01ce 00            	dc.b	0
 484  01cf 7c            	dc.b	124
 485  01d0 04            	dc.b	4
 486  01d1 18            	dc.b	24
 487  01d2 04            	dc.b	4
 488  01d3 78            	dc.b	120
 489  01d4 00            	dc.b	0
 490  01d5 7c            	dc.b	124
 491  01d6 08            	dc.b	8
 492  01d7 04            	dc.b	4
 493  01d8 04            	dc.b	4
 494  01d9 78            	dc.b	120
 495  01da 00            	dc.b	0
 496  01db 38            	dc.b	56
 497  01dc 44            	dc.b	68
 498  01dd 44            	dc.b	68
 499  01de 44            	dc.b	68
 500  01df 38            	dc.b	56
 501  01e0 00            	dc.b	0
 502  01e1 fc            	dc.b	252
 503  01e2 24            	dc.b	36
 504  01e3 24            	dc.b	36
 505  01e4 24            	dc.b	36
 506  01e5 18            	dc.b	24
 507  01e6 00            	dc.b	0
 508  01e7 18            	dc.b	24
 509  01e8 24            	dc.b	36
 510  01e9 24            	dc.b	36
 511  01ea 18            	dc.b	24
 512  01eb fc            	dc.b	252
 513  01ec 00            	dc.b	0
 514  01ed 7c            	dc.b	124
 515  01ee 08            	dc.b	8
 516  01ef 04            	dc.b	4
 517  01f0 04            	dc.b	4
 518  01f1 08            	dc.b	8
 519  01f2 00            	dc.b	0
 520  01f3 48            	dc.b	72
 521  01f4 54            	dc.b	84
 522  01f5 54            	dc.b	84
 523  01f6 54            	dc.b	84
 524  01f7 20            	dc.b	32
 525  01f8 00            	dc.b	0
 526  01f9 04            	dc.b	4
 527  01fa 3f            	dc.b	63
 528  01fb 44            	dc.b	68
 529  01fc 40            	dc.b	64
 530  01fd 20            	dc.b	32
 531  01fe 00            	dc.b	0
 532  01ff 3c            	dc.b	60
 533  0200 40            	dc.b	64
 534  0201 40            	dc.b	64
 535  0202 20            	dc.b	32
 536  0203 7c            	dc.b	124
 537  0204 00            	dc.b	0
 538  0205 1c            	dc.b	28
 539  0206 20            	dc.b	32
 540  0207 40            	dc.b	64
 541  0208 20            	dc.b	32
 542  0209 1c            	dc.b	28
 543  020a 00            	dc.b	0
 544  020b 3c            	dc.b	60
 545  020c 40            	dc.b	64
 546  020d 30            	dc.b	48
 547  020e 40            	dc.b	64
 548  020f 3c            	dc.b	60
 549  0210 00            	dc.b	0
 550  0211 44            	dc.b	68
 551  0212 28            	dc.b	40
 552  0213 10            	dc.b	16
 553  0214 28            	dc.b	40
 554  0215 44            	dc.b	68
 555  0216 00            	dc.b	0
 556  0217 1c            	dc.b	28
 557  0218 a0            	dc.b	160
 558  0219 a0            	dc.b	160
 559  021a a0            	dc.b	160
 560  021b 7c            	dc.b	124
 561  021c 00            	dc.b	0
 562  021d 44            	dc.b	68
 563  021e 64            	dc.b	100
 564  021f 54            	dc.b	84
 565  0220 4c            	dc.b	76
 566  0221 44            	dc.b	68
 567  0222 14            	dc.b	20
 568  0223 14            	dc.b	20
 569  0224 14            	dc.b	20
 570  0225 14            	dc.b	20
 571  0226 14            	dc.b	20
 572  0227 14            	dc.b	20
 635                     	switch	.const
 636  0228               L41:
 637  0228 000f4240      	dc.l	1000000
 638                     ; 5 void I2C_setup(void)
 638                     ; 6 {
 639                     	scross	off
 640                     	switch	.text
 641  0000               _I2C_setup:
 645                     ; 7     I2C_DeInit();
 647  0000 cd0000        	call	_I2C_DeInit
 649                     ; 9     I2C_Init(100000, 
 649                     ; 10              SSD1306_I2C_Address, 
 649                     ; 11              I2C_DUTYCYCLE_2, 
 649                     ; 12              I2C_ACK_CURR, 
 649                     ; 13              I2C_ADDMODE_7BIT, 
 649                     ; 14              (CLK_GetClockFreq() / 1000000));
 651  0003 cd0000        	call	_CLK_GetClockFreq
 653  0006 ae0228        	ldw	x,#L41
 654  0009 cd0000        	call	c_ludv
 656  000c b603          	ld	a,c_lreg+3
 657  000e 88            	push	a
 658  000f 4b00          	push	#0
 659  0011 4b01          	push	#1
 660  0013 4b00          	push	#0
 661  0015 ae0078        	ldw	x,#120
 662  0018 89            	pushw	x
 663  0019 ae86a0        	ldw	x,#34464
 664  001c 89            	pushw	x
 665  001d ae0001        	ldw	x,#1
 666  0020 89            	pushw	x
 667  0021 cd0000        	call	_I2C_Init
 669  0024 5b0a          	addw	sp,#10
 670                     ; 16     I2C_Cmd(ENABLE);
 672  0026 a601          	ld	a,#1
 674                     ; 17 }
 677  0028 cc0000        	jp	_I2C_Cmd
 702                     ; 20 void OLED_HW_setup(void)
 702                     ; 21 {
 703                     	switch	.text
 704  002b               _OLED_HW_setup:
 708                     ; 22 	GPIO_Init(I2C_PORT, SCL_pin, GPIO_MODE_OUT_OD_HIZ_FAST);
 710  002b 4bb0          	push	#176
 711  002d 4b02          	push	#2
 712  002f ae5014        	ldw	x,#20500
 713  0032 cd0000        	call	_GPIO_Init
 715  0035 85            	popw	x
 716                     ; 23 	GPIO_Init(I2C_PORT, SDA_pin, GPIO_MODE_OUT_OD_HIZ_FAST);
 718  0036 4bb0          	push	#176
 719  0038 4b04          	push	#4
 720  003a ae5014        	ldw	x,#20500
 721  003d cd0000        	call	_GPIO_Init
 723  0040 85            	popw	x
 724                     ; 25     I2C_setup();
 727                     ; 26 }
 730  0041 20bd          	jp	_I2C_setup
 756                     ; 29 void OLED_init(void)
 756                     ; 30 {
 757                     	switch	.text
 758  0043               _OLED_init:
 762                     ; 31      OLED_HW_setup();
 764  0043 ade6          	call	_OLED_HW_setup
 766                     ; 32      delay_ms(100);
 768  0045 ae0064        	ldw	x,#100
 769  0048 cd0000        	call	_delay_ms
 771                     ; 34      OLED_write((Set_Display_ON_or_OFF_CMD | Display_OFF), CMD);
 773  004b aeae00        	ldw	x,#44544
 774  004e cd00df        	call	_OLED_write
 776                     ; 35      OLED_write(Set_Multiplex_Ratio_CMD, CMD);
 778  0051 aea800        	ldw	x,#43008
 779  0054 cd00df        	call	_OLED_write
 781                     ; 36      OLED_write(0x3F, CMD);
 783  0057 ae3f00        	ldw	x,#16128
 784  005a cd00df        	call	_OLED_write
 786                     ; 37      OLED_write(Set_Display_Offset_CMD, CMD);
 788  005d aed300        	ldw	x,#54016
 789  0060 ad78          	call	LC001
 791                     ; 39      OLED_write(Set_Display_Start_Line_CMD, CMD);
 793  0062 ae4000        	ldw	x,#16384
 794  0065 ad78          	call	_OLED_write
 796                     ; 40      OLED_write((Set_Segment_Remap_CMD | Column_Address_0_Mapped_to_SEG127), CMD);
 798  0067 aea100        	ldw	x,#41216
 799  006a ad73          	call	_OLED_write
 801                     ; 41      OLED_write((Set_COM_Output_Scan_Direction_CMD | Scan_from_COM63_to_0), CMD);
 803  006c aec800        	ldw	x,#51200
 804  006f ad6e          	call	_OLED_write
 806                     ; 42      OLED_write(Set_Common_HW_Config_CMD, CMD);
 808  0071 aeda00        	ldw	x,#55808
 809  0074 ad69          	call	_OLED_write
 811                     ; 43      OLED_write(0x12, CMD);
 813  0076 ae1200        	ldw	x,#4608
 814  0079 ad64          	call	_OLED_write
 816                     ; 44      OLED_write(Set_Contrast_Control_CMD, CMD);
 818  007b ae8100        	ldw	x,#33024
 819  007e ad5f          	call	_OLED_write
 821                     ; 45      OLED_write(0xFF, CMD);
 823  0080 aeff00        	ldw	x,#65280
 824  0083 ad5a          	call	_OLED_write
 826                     ; 46      OLED_write(Set_Entire_Display_ON_CMD, CMD);
 828  0085 aea400        	ldw	x,#41984
 829  0088 ad55          	call	_OLED_write
 831                     ; 47      OLED_write(Set_Normal_or_Inverse_Display_CMD, CMD);
 833  008a aea600        	ldw	x,#42496
 834  008d ad50          	call	_OLED_write
 836                     ; 48      OLED_write(Set_Display_Clock_CMD, CMD);
 838  008f aed500        	ldw	x,#54528
 839  0092 ad4b          	call	_OLED_write
 841                     ; 49      OLED_write(0x80, CMD);
 843  0094 ae8000        	ldw	x,#32768
 844  0097 ad46          	call	_OLED_write
 846                     ; 50      OLED_write(Set_Pre_charge_Period_CMD, CMD);
 848  0099 aed900        	ldw	x,#55552
 849  009c ad41          	call	_OLED_write
 851                     ; 51      OLED_write(0x25, CMD);
 853  009e ae2500        	ldw	x,#9472
 854  00a1 ad3c          	call	_OLED_write
 856                     ; 52      OLED_write(Set_VCOMH_Level_CMD, CMD);
 858  00a3 aedb00        	ldw	x,#56064
 859  00a6 ad37          	call	_OLED_write
 861                     ; 53      OLED_write(0x20, CMD);
 863  00a8 ae2000        	ldw	x,#8192
 864  00ab ad32          	call	_OLED_write
 866                     ; 54      OLED_write(Set_Page_Address_CMD, CMD);
 868  00ad ae2200        	ldw	x,#8704
 869  00b0 ad28          	call	LC001
 871                     ; 56      OLED_write(0x07, CMD);
 873  00b2 ae0700        	ldw	x,#1792
 874  00b5 ad28          	call	_OLED_write
 876                     ; 57      OLED_write(Set_Page_Start_Address_CMD , CMD);
 878  00b7 aeb000        	ldw	x,#45056
 879  00ba ad23          	call	_OLED_write
 881                     ; 58      OLED_write(Set_Higher_Column_Start_Address_CMD, CMD);
 883  00bc ae1000        	ldw	x,#4096
 884  00bf ad19          	call	LC001
 886                     ; 60      OLED_write(Set_Memory_Addressing_Mode_CMD, CMD);
 888  00c1 ae2000        	ldw	x,#8192
 889  00c4 ad19          	call	_OLED_write
 891                     ; 61      OLED_write(0x02, CMD);
 893  00c6 ae0200        	ldw	x,#512
 894  00c9 ad14          	call	_OLED_write
 896                     ; 62      OLED_write(Set_Charge_Pump_CMD, CMD);
 898  00cb ae8d00        	ldw	x,#36096
 899  00ce ad0f          	call	_OLED_write
 901                     ; 63      OLED_write(0x14, CMD);
 903  00d0 ae1400        	ldw	x,#5120
 904  00d3 ad0a          	call	_OLED_write
 906                     ; 64      OLED_write((Set_Display_ON_or_OFF_CMD | Display_ON), CMD);
 908  00d5 aeaf00        	ldw	x,#44800
 910                     ; 65 }
 913  00d8 2005          	jp	_OLED_write
 914  00da               LC001:
 915  00da ad03          	call	_OLED_write
 917                     ; 59      OLED_write(Set_Lower_Column_Start_Address_CMD, CMD);
 919  00dc 5f            	clrw	x
 920  00dd 2000          	jp	_OLED_write
 965                     ; 68 void OLED_write(unsigned char value, unsigned char control_byte)
 965                     ; 69 {
 966                     	switch	.text
 967  00df               _OLED_write:
 969  00df 89            	pushw	x
 970       00000000      OFST:	set	0
 973  00e0               L77:
 974                     ; 70     while(I2C_GetFlagStatus(I2C_FLAG_BUSBUSY));
 976  00e0 ae0302        	ldw	x,#770
 977  00e3 cd0000        	call	_I2C_GetFlagStatus
 979  00e6 4d            	tnz	a
 980  00e7 26f7          	jrne	L77
 981                     ; 72 	I2C_GenerateSTART(ENABLE);
 983  00e9 4c            	inc	a
 984  00ea cd0000        	call	_I2C_GenerateSTART
 987  00ed               L501:
 988                     ; 73     while(!I2C_CheckEvent(I2C_EVENT_MASTER_MODE_SELECT));
 990  00ed ae0301        	ldw	x,#769
 991  00f0 cd0000        	call	_I2C_CheckEvent
 993  00f3 4d            	tnz	a
 994  00f4 27f7          	jreq	L501
 995                     ; 75     I2C_Send7bitAddress(SSD1306_I2C_Address, I2C_DIRECTION_TX); 
 997  00f6 ae7800        	ldw	x,#30720
 998  00f9 cd0000        	call	_I2C_Send7bitAddress
1001  00fc               L311:
1002                     ; 76     while(!I2C_CheckEvent(I2C_EVENT_MASTER_TRANSMITTER_MODE_SELECTED));
1004  00fc ae0782        	ldw	x,#1922
1005  00ff cd0000        	call	_I2C_CheckEvent
1007  0102 4d            	tnz	a
1008  0103 27f7          	jreq	L311
1009                     ; 78     I2C_SendData(control_byte);
1011  0105 7b02          	ld	a,(OFST+2,sp)
1012  0107 cd0000        	call	_I2C_SendData
1015  010a               L121:
1016                     ; 79     while(!I2C_CheckEvent(I2C_EVENT_MASTER_BYTE_TRANSMITTING));
1018  010a ae0780        	ldw	x,#1920
1019  010d cd0000        	call	_I2C_CheckEvent
1021  0110 4d            	tnz	a
1022  0111 27f7          	jreq	L121
1023                     ; 81     I2C_SendData(value);
1025  0113 7b01          	ld	a,(OFST+1,sp)
1026  0115 cd0000        	call	_I2C_SendData
1029  0118               L721:
1030                     ; 82     while(!I2C_CheckEvent(I2C_EVENT_MASTER_BYTE_TRANSMITTED));
1032  0118 ae0784        	ldw	x,#1924
1033  011b cd0000        	call	_I2C_CheckEvent
1035  011e 4d            	tnz	a
1036  011f 27f7          	jreq	L721
1037                     ; 84     I2C_GenerateSTOP(ENABLE);  
1039  0121 a601          	ld	a,#1
1040  0123 cd0000        	call	_I2C_GenerateSTOP
1042                     ; 85 }
1045  0126 85            	popw	x
1046  0127 81            	ret	
1086                     ; 88 void OLED_gotoxy(unsigned char x_pos, unsigned char y_pos)
1086                     ; 89 {
1087                     	switch	.text
1088  0128               _OLED_gotoxy:
1090  0128 89            	pushw	x
1091       00000000      OFST:	set	0
1094                     ; 90      OLED_write((Set_Page_Start_Address_CMD + y_pos), CMD);
1096  0129 9f            	ld	a,xl
1097  012a abb0          	add	a,#176
1098  012c ad11          	call	LC002
1100                     ; 91      OLED_write(((x_pos & 0x0F) | Set_Lower_Column_Start_Address_CMD), CMD);
1102  012e 7b01          	ld	a,(OFST+1,sp)
1103  0130 a40f          	and	a,#15
1104  0132 ad0b          	call	LC002
1106                     ; 92      OLED_write((((x_pos & 0xF0) >> 0x04) | Set_Higher_Column_Start_Address_CMD), CMD);
1108  0134 7b01          	ld	a,(OFST+1,sp)
1109  0136 4e            	swap	a
1110  0137 a40f          	and	a,#15
1111  0139 aa10          	or	a,#16
1112  013b ad02          	call	LC002
1114                     ; 93 }
1117  013d 85            	popw	x
1118  013e 81            	ret	
1119  013f               LC002:
1120  013f 5f            	clrw	x
1121  0140 95            	ld	xh,a
1122  0141 209c          	jp	_OLED_write
1174                     ; 96 void OLED_fill(unsigned char bmp_data)
1174                     ; 97 {
1175                     	switch	.text
1176  0143               _OLED_fill:
1178  0143 88            	push	a
1179  0144 89            	pushw	x
1180       00000002      OFST:	set	2
1183                     ; 98     unsigned char x_pos = 0x00;
1185                     ; 99     unsigned char page = 0x00;
1187                     ; 101     for(page = 0; page < y_max; page++)
1189  0145 4f            	clr	a
1190  0146 6b01          	ld	(OFST-1,sp),a
1192  0148               L171:
1193                     ; 103         OLED_gotoxy(x_min, page);
1195  0148 5f            	clrw	x
1196  0149 97            	ld	xl,a
1197  014a addc          	call	_OLED_gotoxy
1199                     ; 105         I2C_GenerateSTART(ENABLE);
1201  014c a601          	ld	a,#1
1202  014e cd0000        	call	_I2C_GenerateSTART
1205  0151               L102:
1206                     ; 106         while(!I2C_CheckEvent(I2C_EVENT_MASTER_MODE_SELECT));
1208  0151 ae0301        	ldw	x,#769
1209  0154 cd0000        	call	_I2C_CheckEvent
1211  0157 4d            	tnz	a
1212  0158 27f7          	jreq	L102
1213                     ; 108         I2C_Send7bitAddress(SSD1306_I2C_Address, I2C_DIRECTION_TX); 
1215  015a ae7800        	ldw	x,#30720
1216  015d cd0000        	call	_I2C_Send7bitAddress
1219  0160               L702:
1220                     ; 109         while(!I2C_CheckEvent(I2C_EVENT_MASTER_TRANSMITTER_MODE_SELECTED));
1222  0160 ae0782        	ldw	x,#1922
1223  0163 cd0000        	call	_I2C_CheckEvent
1225  0166 4d            	tnz	a
1226  0167 27f7          	jreq	L702
1227                     ; 111         I2C_SendData(DAT);
1229  0169 a660          	ld	a,#96
1230  016b cd0000        	call	_I2C_SendData
1233  016e               L512:
1234                     ; 112         while(!I2C_CheckEvent(I2C_EVENT_MASTER_BYTE_TRANSMITTING));    
1236  016e ae0780        	ldw	x,#1920
1237  0171 cd0000        	call	_I2C_CheckEvent
1239  0174 4d            	tnz	a
1240  0175 27f7          	jreq	L512
1241                     ; 114         for(x_pos = x_min; x_pos < x_max; x_pos++)
1243  0177 0f02          	clr	(OFST+0,sp)
1245  0179               L122:
1246                     ; 116            I2C_SendData(bmp_data);
1248  0179 7b03          	ld	a,(OFST+1,sp)
1249  017b cd0000        	call	_I2C_SendData
1252  017e               L132:
1253                     ; 117 		   while(!I2C_CheckEvent(I2C_EVENT_MASTER_BYTE_TRANSMITTED));  
1255  017e ae0784        	ldw	x,#1924
1256  0181 cd0000        	call	_I2C_CheckEvent
1258  0184 4d            	tnz	a
1259  0185 27f7          	jreq	L132
1260                     ; 114         for(x_pos = x_min; x_pos < x_max; x_pos++)
1262  0187 0c02          	inc	(OFST+0,sp)
1266  0189 7b02          	ld	a,(OFST+0,sp)
1267  018b a180          	cp	a,#128
1268  018d 25ea          	jrult	L122
1269                     ; 120         I2C_GenerateSTOP(ENABLE);  
1271  018f a601          	ld	a,#1
1272  0191 cd0000        	call	_I2C_GenerateSTOP
1274                     ; 101     for(page = 0; page < y_max; page++)
1276  0194 0c01          	inc	(OFST-1,sp)
1280  0196 7b01          	ld	a,(OFST-1,sp)
1281  0198 a108          	cp	a,#8
1282  019a 25ac          	jrult	L171
1283                     ; 122 }
1286  019c 5b03          	addw	sp,#3
1287  019e 81            	ret	
1349                     ; 125 void OLED_print_Image(const unsigned char *bmp, unsigned char pixel)
1349                     ; 126 {
1350                     	switch	.text
1351  019f               _OLED_print_Image:
1353  019f 89            	pushw	x
1354  01a0 89            	pushw	x
1355       00000002      OFST:	set	2
1358                     ; 127     unsigned char x_pos = 0;
1360                     ; 128     unsigned char page = 0;
1362                     ; 130     if(pixel != OFF)
1364  01a1 7b07          	ld	a,(OFST+5,sp)
1365  01a3 2702          	jreq	L162
1366                     ; 132         pixel = 0xFF;
1368  01a5 a6ff          	ld	a,#255
1370  01a7               L162:
1371                     ; 136         pixel = 0x00;
1373  01a7 6b07          	ld	(OFST+5,sp),a
1374                     ; 139     for(page = 0; page < y_max; page++)
1376  01a9 4f            	clr	a
1377  01aa 6b01          	ld	(OFST-1,sp),a
1379  01ac               L562:
1380                     ; 141          OLED_gotoxy(x_min, page);
1382  01ac 5f            	clrw	x
1383  01ad 97            	ld	xl,a
1384  01ae cd0128        	call	_OLED_gotoxy
1386                     ; 143          I2C_GenerateSTART(ENABLE);
1388  01b1 a601          	ld	a,#1
1389  01b3 cd0000        	call	_I2C_GenerateSTART
1392  01b6               L572:
1393                     ; 144          while(!I2C_CheckEvent(I2C_EVENT_MASTER_MODE_SELECT));
1395  01b6 ae0301        	ldw	x,#769
1396  01b9 cd0000        	call	_I2C_CheckEvent
1398  01bc 4d            	tnz	a
1399  01bd 27f7          	jreq	L572
1400                     ; 146          I2C_Send7bitAddress(SSD1306_I2C_Address, I2C_DIRECTION_TX); 
1402  01bf ae7800        	ldw	x,#30720
1403  01c2 cd0000        	call	_I2C_Send7bitAddress
1406  01c5               L303:
1407                     ; 147          while(!I2C_CheckEvent(I2C_EVENT_MASTER_TRANSMITTER_MODE_SELECTED));
1409  01c5 ae0782        	ldw	x,#1922
1410  01c8 cd0000        	call	_I2C_CheckEvent
1412  01cb 4d            	tnz	a
1413  01cc 27f7          	jreq	L303
1414                     ; 149          I2C_SendData(DAT);
1416  01ce a660          	ld	a,#96
1417  01d0 cd0000        	call	_I2C_SendData
1420  01d3               L113:
1421                     ; 150          while(!I2C_CheckEvent(I2C_EVENT_MASTER_BYTE_TRANSMITTING));    
1423  01d3 ae0780        	ldw	x,#1920
1424  01d6 cd0000        	call	_I2C_CheckEvent
1426  01d9 4d            	tnz	a
1427  01da 27f7          	jreq	L113
1428                     ; 152          for(x_pos = x_min; x_pos < x_max; x_pos++)
1430  01dc 0f02          	clr	(OFST+0,sp)
1432  01de               L513:
1433                     ; 154             I2C_SendData((*bmp++ ^ pixel));
1435  01de 1e03          	ldw	x,(OFST+1,sp)
1436  01e0 f6            	ld	a,(x)
1437  01e1 5c            	incw	x
1438  01e2 1f03          	ldw	(OFST+1,sp),x
1439  01e4 1807          	xor	a,(OFST+5,sp)
1440  01e6 cd0000        	call	_I2C_SendData
1443  01e9               L523:
1444                     ; 155             while(!I2C_CheckEvent(I2C_EVENT_MASTER_BYTE_TRANSMITTED));
1446  01e9 ae0784        	ldw	x,#1924
1447  01ec cd0000        	call	_I2C_CheckEvent
1449  01ef 4d            	tnz	a
1450  01f0 27f7          	jreq	L523
1451                     ; 152          for(x_pos = x_min; x_pos < x_max; x_pos++)
1453  01f2 0c02          	inc	(OFST+0,sp)
1457  01f4 7b02          	ld	a,(OFST+0,sp)
1458  01f6 a180          	cp	a,#128
1459  01f8 25e4          	jrult	L513
1460                     ; 158 		 I2C_GenerateSTOP(ENABLE); 
1462  01fa a601          	ld	a,#1
1463  01fc cd0000        	call	_I2C_GenerateSTOP
1465                     ; 139     for(page = 0; page < y_max; page++)
1467  01ff 0c01          	inc	(OFST-1,sp)
1471  0201 7b01          	ld	a,(OFST-1,sp)
1472  0203 a108          	cp	a,#8
1473  0205 25a5          	jrult	L562
1474                     ; 160 }
1477  0207 5b04          	addw	sp,#4
1478  0209 81            	ret	
1502                     ; 163 void OLED_clear_screen(void)
1502                     ; 164 {
1503                     	switch	.text
1504  020a               _OLED_clear_screen:
1508                     ; 165     OLED_fill(0x00);
1510  020a 4f            	clr	a
1512                     ; 166 }
1515  020b cc0143        	jp	_OLED_fill
1548                     ; 169 void OLED_clear_buffer(void)
1548                     ; 170 {
1549                     	switch	.text
1550  020e               _OLED_clear_buffer:
1552       00000002      OFST:	set	2
1555                     ; 171      unsigned int s = 0x0000;
1557                     ; 173      for(s = 0; s < buffer_size; s++)
1559  020e 5f            	clrw	x
1561  020f               L553:
1562                     ; 175           buffer[s] = 0x00;
1565  020f 724f0000      	clr	(_buffer,x)
1566                     ; 173      for(s = 0; s < buffer_size; s++)
1568  0213 5c            	incw	x
1571  0214 a30400        	cpw	x,#1024
1572  0217 25f6          	jrult	L553
1574                     ; 177 }
1577  0219 81            	ret	
1625                     ; 180 void OLED_cursor(unsigned char x_pos, unsigned char y_pos)
1625                     ; 181 {
1626                     	switch	.text
1627  021a               _OLED_cursor:
1629  021a 89            	pushw	x
1630  021b 88            	push	a
1631       00000001      OFST:	set	1
1634                     ; 182     unsigned char s = 0x00;
1636                     ; 184     if(y_pos != 0x00)
1638  021c 9f            	ld	a,xl
1639  021d 4d            	tnz	a
1640  021e 2730          	jreq	L304
1641                     ; 186         if(x_pos == 1)
1643  0220 9e            	ld	a,xh
1644  0221 4a            	dec	a
1645  0222 2607          	jrne	L504
1646                     ; 188             OLED_gotoxy(0x00, (y_pos + 0x02));
1648  0224 9f            	ld	a,xl
1649  0225 ab02          	add	a,#2
1650  0227 5f            	clrw	x
1651  0228 97            	ld	xl,a
1654  0229 2012          	jra	L704
1655  022b               L504:
1656                     ; 192             OLED_gotoxy((0x50 + ((x_pos - 0x02) * 0x06)), (y_pos + 0x02));
1658  022b 7b03          	ld	a,(OFST+2,sp)
1659  022d ab02          	add	a,#2
1660  022f 97            	ld	xl,a
1661  0230 7b02          	ld	a,(OFST+1,sp)
1662  0232 90ae0006      	ldw	y,#6
1663  0236 9042          	mul	y,a
1664  0238 909f          	ld	a,yl
1665  023a ab44          	add	a,#68
1666  023c 95            	ld	xh,a
1668  023d               L704:
1669  023d cd0128        	call	_OLED_gotoxy
1670                     ; 195         for(s = 0x00; s < 0x06; s++)
1672  0240 0f01          	clr	(OFST+0,sp)
1674  0242               L114:
1675                     ; 197             OLED_write(0xFF, DAT);
1677  0242 aeff60        	ldw	x,#65376
1678  0245 cd00df        	call	_OLED_write
1680                     ; 195         for(s = 0x00; s < 0x06; s++)
1682  0248 0c01          	inc	(OFST+0,sp)
1686  024a 7b01          	ld	a,(OFST+0,sp)
1687  024c a106          	cp	a,#6
1688  024e 25f2          	jrult	L114
1689  0250               L304:
1690                     ; 200 }
1693  0250 5b03          	addw	sp,#3
1694  0252 81            	ret	
1780                     ; 203 void OLED_draw_bitmap(unsigned char xb, unsigned char yb, unsigned char xe, unsigned char ye, unsigned char *bmp_img)
1780                     ; 204 {
1781                     	switch	.text
1782  0253               _OLED_draw_bitmap:
1784  0253 89            	pushw	x
1785  0254 5204          	subw	sp,#4
1786       00000004      OFST:	set	4
1789                     ; 205     unsigned int s = 0x0000;
1791  0256 5f            	clrw	x
1792  0257 1f01          	ldw	(OFST-3,sp),x
1794                     ; 206     unsigned char x_pos = 0x00;
1796                     ; 207     unsigned char y_pos = 0x00;
1798                     ; 209     for(y_pos = yb; y_pos <= ye; y_pos++)
1800  0259 7b06          	ld	a,(OFST+2,sp)
1801  025b 6b03          	ld	(OFST-1,sp),a
1804  025d 202a          	jra	L754
1805  025f               L354:
1806                     ; 211         OLED_gotoxy(xb, y_pos);
1808  025f 97            	ld	xl,a
1809  0260 7b05          	ld	a,(OFST+1,sp)
1810  0262 95            	ld	xh,a
1811  0263 cd0128        	call	_OLED_gotoxy
1813                     ; 212         for(x_pos = xb; x_pos < xe; x_pos++)
1815  0266 7b05          	ld	a,(OFST+1,sp)
1816  0268 6b04          	ld	(OFST+0,sp),a
1819  026a 2015          	jra	L764
1820  026c               L364:
1821                     ; 214             OLED_write(bmp_img[s++], DAT);
1823  026c 1e01          	ldw	x,(OFST-3,sp)
1824  026e 5c            	incw	x
1825  026f 1f01          	ldw	(OFST-3,sp),x
1826  0271 5a            	decw	x
1828  0272 72fb0b        	addw	x,(OFST+7,sp)
1829  0275 f6            	ld	a,(x)
1830  0276 ae0060        	ldw	x,#96
1831  0279 95            	ld	xh,a
1832  027a cd00df        	call	_OLED_write
1834                     ; 212         for(x_pos = xb; x_pos < xe; x_pos++)
1836  027d 0c04          	inc	(OFST+0,sp)
1838  027f 7b04          	ld	a,(OFST+0,sp)
1839  0281               L764:
1842  0281 1109          	cp	a,(OFST+5,sp)
1843  0283 25e7          	jrult	L364
1844                     ; 209     for(y_pos = yb; y_pos <= ye; y_pos++)
1846  0285 0c03          	inc	(OFST-1,sp)
1848  0287 7b03          	ld	a,(OFST-1,sp)
1849  0289               L754:
1852  0289 110a          	cp	a,(OFST+6,sp)
1853  028b 23d2          	jrule	L354
1854                     ; 217 }
1857  028d 5b06          	addw	sp,#6
1858  028f 81            	ret	
1921                     ; 220 void OLED_print_char(unsigned char x_pos, unsigned char y_pos, unsigned char ch)
1921                     ; 221 {
1922                     	switch	.text
1923  0290               _OLED_print_char:
1925  0290 89            	pushw	x
1926  0291 89            	pushw	x
1927       00000002      OFST:	set	2
1930                     ; 222   unsigned char s = 0x00;
1932                     ; 223   unsigned char chr = 0x00;
1934                     ; 225   chr = (ch - 0x20);
1936  0292 7b07          	ld	a,(OFST+5,sp)
1937  0294 a020          	sub	a,#32
1938  0296 6b01          	ld	(OFST-1,sp),a
1940                     ; 227   if(x_pos > (x_max - 0x06))
1942  0298 9e            	ld	a,xh
1943  0299 a17b          	cp	a,#123
1944  029b 2504          	jrult	L715
1945                     ; 229     x_pos = 0x00;
1947  029d 0f03          	clr	(OFST+1,sp)
1948                     ; 230     y_pos++;
1950  029f 0c04          	inc	(OFST+2,sp)
1951  02a1               L715:
1952                     ; 232   OLED_gotoxy(x_pos, y_pos);
1954  02a1 7b04          	ld	a,(OFST+2,sp)
1955  02a3 97            	ld	xl,a
1956  02a4 7b03          	ld	a,(OFST+1,sp)
1957  02a6 95            	ld	xh,a
1958  02a7 cd0128        	call	_OLED_gotoxy
1960                     ; 234   for(s = 0x00; s < 0x06; s++)
1962  02aa 0f02          	clr	(OFST+0,sp)
1964  02ac               L125:
1965                     ; 236     OLED_write(font_regular[chr][s], DAT);
1967  02ac 7b01          	ld	a,(OFST-1,sp)
1968  02ae 97            	ld	xl,a
1969  02af a606          	ld	a,#6
1970  02b1 42            	mul	x,a
1971  02b2 01            	rrwa	x,a
1972  02b3 1b02          	add	a,(OFST+0,sp)
1973  02b5 2401          	jrnc	L003
1974  02b7 5c            	incw	x
1975  02b8               L003:
1976  02b8 02            	rlwa	x,a
1977  02b9 d60000        	ld	a,(L3_font_regular,x)
1978  02bc ae0060        	ldw	x,#96
1979  02bf 95            	ld	xh,a
1980  02c0 cd00df        	call	_OLED_write
1982                     ; 234   for(s = 0x00; s < 0x06; s++)
1984  02c3 0c02          	inc	(OFST+0,sp)
1988  02c5 7b02          	ld	a,(OFST+0,sp)
1989  02c7 a106          	cp	a,#6
1990  02c9 25e1          	jrult	L125
1991                     ; 238 }
1994  02cb 5b04          	addw	sp,#4
1995  02cd 81            	ret	
2045                     ; 241 void OLED_print_string(unsigned char x_pos, unsigned char y_pos, char *ch)
2045                     ; 242 {
2046                     	switch	.text
2047  02ce               _OLED_print_string:
2049  02ce 89            	pushw	x
2050       00000000      OFST:	set	0
2053  02cf 1e05          	ldw	x,(OFST+5,sp)
2054  02d1 f6            	ld	a,(x)
2055  02d2               L155:
2056                     ; 245     OLED_print_char(x_pos, y_pos, *ch++);
2058  02d2 5c            	incw	x
2059  02d3 1f05          	ldw	(OFST+5,sp),x
2060  02d5 88            	push	a
2061  02d6 7b03          	ld	a,(OFST+3,sp)
2062  02d8 97            	ld	xl,a
2063  02d9 7b02          	ld	a,(OFST+2,sp)
2064  02db 95            	ld	xh,a
2065  02dc adb2          	call	_OLED_print_char
2067  02de 84            	pop	a
2068                     ; 246     x_pos += 0x06;
2070  02df 7b01          	ld	a,(OFST+1,sp)
2071  02e1 ab06          	add	a,#6
2072  02e3 6b01          	ld	(OFST+1,sp),a
2073                     ; 247   }while((*ch >= 0x20) && (*ch <= 0x7F) && (*ch != '\n'));
2075  02e5 1e05          	ldw	x,(OFST+5,sp)
2076  02e7 f6            	ld	a,(x)
2077  02e8 a120          	cp	a,#32
2078  02ea 2508          	jrult	L755
2080  02ec a180          	cp	a,#128
2081  02ee 2404          	jruge	L755
2083  02f0 a10a          	cp	a,#10
2084  02f2 26de          	jrne	L155
2085  02f4               L755:
2086                     ; 248 }
2089  02f4 85            	popw	x
2090  02f5 81            	ret	
2093                     	switch	.const
2094  022c               L365_ch:
2095  022c 20            	dc.b	32
2096  022d 20            	dc.b	32
2097  022e 20            	dc.b	32
2098  022f 20            	dc.b	32
2099  0230 0a            	dc.b	10
2154                     ; 251 void OLED_print_chr(unsigned char x_pos, unsigned char y_pos, signed int value)
2154                     ; 252 {
2155                     	switch	.text
2156  02f6               _OLED_print_chr:
2158  02f6 89            	pushw	x
2159  02f7 5205          	subw	sp,#5
2160       00000005      OFST:	set	5
2163                     ; 253    char ch[5] = {0x20, 0x20, 0x20, 0x20, '\n'};
2165  02f9 96            	ldw	x,sp
2166  02fa 5c            	incw	x
2167  02fb 90ae022c      	ldw	y,#L365_ch
2168  02ff a605          	ld	a,#5
2169  0301 cd0000        	call	c_xymvx
2171                     ; 255   if(value < 0)
2173  0304 1e0a          	ldw	x,(OFST+5,sp)
2174  0306 2a09          	jrpl	L116
2175                     ; 257     ch[0] = 0x2D;
2177  0308 a62d          	ld	a,#45
2178  030a 6b01          	ld	(OFST-4,sp),a
2180                     ; 258     value = -value;
2182  030c 50            	negw	x
2183  030d 1f0a          	ldw	(OFST+5,sp),x
2185  030f 2004          	jra	L316
2186  0311               L116:
2187                     ; 262     ch[0] = 0x20;
2189  0311 a620          	ld	a,#32
2190  0313 6b01          	ld	(OFST-4,sp),a
2192  0315               L316:
2193                     ; 265   if((value > 99) && (value <= 999))
2195  0315 a30064        	cpw	x,#100
2196  0318 2f20          	jrslt	L516
2198  031a a303e8        	cpw	x,#1000
2199  031d 2e1b          	jrsge	L516
2200                     ; 267      ch[1] = ((value / 100) + 0x30);
2202  031f a664          	ld	a,#100
2203  0321 ad58          	call	LC004
2204  0323 6b02          	ld	(OFST-3,sp),a
2206                     ; 268      ch[2] = (((value % 100) / 10) + 0x30);
2208  0325 a664          	ld	a,#100
2209  0327 1e0a          	ldw	x,(OFST+5,sp)
2210  0329 cd0000        	call	c_smodx
2212  032c a60a          	ld	a,#10
2213  032e ad4b          	call	LC004
2214  0330 6b03          	ld	(OFST-2,sp),a
2216                     ; 269      ch[3] = ((value % 10) + 0x30);
2218  0332 a60a          	ld	a,#10
2219  0334 1e0a          	ldw	x,(OFST+5,sp)
2220  0336 ad4b          	call	LC005
2222  0338 202f          	jp	LC003
2223  033a               L516:
2224                     ; 271   else if((value > 9) && (value <= 99))
2226  033a a3000a        	cpw	x,#10
2227  033d 2f17          	jrslt	L126
2229  033f a30064        	cpw	x,#100
2230  0342 2e12          	jrsge	L126
2231                     ; 273      ch[1] = ((value / 10) + 0x30);
2233  0344 a60a          	ld	a,#10
2234  0346 ad33          	call	LC004
2235  0348 6b02          	ld	(OFST-3,sp),a
2237                     ; 274      ch[2] = ((value % 10) + 0x30);
2239  034a a60a          	ld	a,#10
2240  034c 1e0a          	ldw	x,(OFST+5,sp)
2241  034e ad33          	call	LC005
2242  0350 6b03          	ld	(OFST-2,sp),a
2244                     ; 275      ch[3] = 0x20;
2246  0352 a620          	ld	a,#32
2248  0354 2013          	jp	LC003
2249  0356               L126:
2250                     ; 277   else if((value >= 0) && (value <= 9))
2252  0356 1e0a          	ldw	x,(OFST+5,sp)
2253  0358 2b11          	jrmi	L716
2255  035a a3000a        	cpw	x,#10
2256  035d 2e0c          	jrsge	L716
2257                     ; 279      ch[1] = ((value % 10) + 0x30);
2259  035f a60a          	ld	a,#10
2260  0361 ad20          	call	LC005
2261  0363 6b02          	ld	(OFST-3,sp),a
2263                     ; 280      ch[2] = 0x20;
2265  0365 a620          	ld	a,#32
2266  0367 6b03          	ld	(OFST-2,sp),a
2268                     ; 281      ch[3] = 0x20;
2270  0369               LC003:
2271  0369 6b04          	ld	(OFST-1,sp),a
2273  036b               L716:
2274                     ; 284   OLED_print_string(x_pos, y_pos, ch);
2276  036b 96            	ldw	x,sp
2277  036c 5c            	incw	x
2278  036d 89            	pushw	x
2279  036e 7b09          	ld	a,(OFST+4,sp)
2280  0370 97            	ld	xl,a
2281  0371 7b08          	ld	a,(OFST+3,sp)
2282  0373 95            	ld	xh,a
2283  0374 cd02ce        	call	_OLED_print_string
2285  0377 85            	popw	x
2286                     ; 285 }
2289  0378 5b07          	addw	sp,#7
2290  037a 81            	ret	
2291  037b               LC004:
2292  037b cd0000        	call	c_sdivx
2294  037e 1c0030        	addw	x,#48
2295  0381 01            	rrwa	x,a
2296  0382 81            	ret	
2297  0383               LC005:
2298  0383 cd0000        	call	c_smodx
2300  0386 1c0030        	addw	x,#48
2301  0389 01            	rrwa	x,a
2302  038a 81            	ret	
2305                     	switch	.const
2306  0231               L726_ch:
2307  0231 20            	dc.b	32
2308  0232 20            	dc.b	32
2309  0233 20            	dc.b	32
2310  0234 20            	dc.b	32
2311  0235 20            	dc.b	32
2312  0236 20            	dc.b	32
2313  0237 0a            	dc.b	10
2368                     	switch	.const
2369  0238               L413:
2370  0238 00002710      	dc.l	10000
2371  023c               L613:
2372  023c 000003e8      	dc.l	1000
2373  0240               L023:
2374  0240 00000064      	dc.l	100
2375  0244               L223:
2376  0244 0000000a      	dc.l	10
2377                     ; 288 void OLED_print_int(unsigned char x_pos, unsigned char y_pos, signed long value)
2377                     ; 289 {
2378                     	switch	.text
2379  038b               _OLED_print_int:
2381  038b 89            	pushw	x
2382  038c 5207          	subw	sp,#7
2383       00000007      OFST:	set	7
2386                     ; 290    char ch[7] = {0x20, 0x20, 0x20, 0x20, 0x20, 0x20, '\n'};
2388  038e 96            	ldw	x,sp
2389  038f 5c            	incw	x
2390  0390 90ae0231      	ldw	y,#L726_ch
2391  0394 a607          	ld	a,#7
2392  0396 cd0000        	call	c_xymvx
2394                     ; 292   if(value < 0)
2396  0399 7b0c          	ld	a,(OFST+5,sp)
2397  039b 2a0d          	jrpl	L556
2398                     ; 294     ch[0] = 0x2D;
2400  039d a62d          	ld	a,#45
2401  039f 6b01          	ld	(OFST-6,sp),a
2403                     ; 295     value = -value;
2405  03a1 96            	ldw	x,sp
2406  03a2 1c000c        	addw	x,#OFST+5
2407  03a5 cd0000        	call	c_lgneg
2410  03a8 2004          	jra	L756
2411  03aa               L556:
2412                     ; 299     ch[0] = 0x20;
2414  03aa a620          	ld	a,#32
2415  03ac 6b01          	ld	(OFST-6,sp),a
2417  03ae               L756:
2418                     ; 302   if(value > 9999)
2420  03ae 96            	ldw	x,sp
2421  03af cd04e5        	call	LC012
2422  03b2 cd0000        	call	c_lcmp
2424  03b5 96            	ldw	x,sp
2425  03b6 2f42          	jrslt	L166
2426                     ; 304     ch[1] = ((value / 10000) + 0x30);  
2428  03b8 cd04e5        	call	LC012
2429  03bb cd0000        	call	c_ldiv
2431  03be cd04bf        	call	LC008
2432  03c1 6b02          	ld	(OFST-5,sp),a
2434                     ; 305     ch[2] = (((value % 10000) / 1000) + 0x30);  
2436  03c3 96            	ldw	x,sp
2437  03c4 cd04e5        	call	LC012
2438  03c7 cd0000        	call	c_lmod
2440  03ca ae023c        	ldw	x,#L613
2441  03cd cd0000        	call	c_ldiv
2443  03d0 cd04bf        	call	LC008
2444  03d3 6b03          	ld	(OFST-4,sp),a
2446                     ; 306     ch[3] = (((value % 1000) / 100) + 0x30);  
2448  03d5 96            	ldw	x,sp
2449  03d6 cd04db        	call	LC011
2450  03d9 cd04f8        	call	LC014
2452  03dc cd04bf        	call	LC008
2453  03df 6b04          	ld	(OFST-3,sp),a
2455                     ; 307     ch[4] = (((value % 100) / 10) + 0x30);  
2457  03e1 96            	ldw	x,sp
2458  03e2 cd04d1        	call	LC010
2459  03e5 cd04ef        	call	LC013
2461  03e8 cd04bf        	call	LC008
2462  03eb 6b05          	ld	(OFST-2,sp),a
2464                     ; 308     ch[5] = ((value % 10) + 0x30);
2466  03ed 96            	ldw	x,sp
2467  03ee cd04c7        	call	LC009
2468  03f1 cd0000        	call	c_lmod
2470  03f4 cd04bf        	call	LC008
2472  03f7 cc04ad        	jra	L366
2473  03fa               L166:
2474                     ; 311   else if((value > 999) && (value <= 9999))
2476  03fa cd04db        	call	LC011
2477  03fd cd0000        	call	c_lcmp
2479  0400 2f3d          	jrslt	L566
2481  0402 96            	ldw	x,sp
2482  0403 cd04e5        	call	LC012
2483  0406 cd0000        	call	c_lcmp
2485  0409 2e34          	jrsge	L566
2486                     ; 313     ch[1] = ((value / 1000) + 0x30);  
2488  040b 96            	ldw	x,sp
2489  040c cd04db        	call	LC011
2490  040f cd0000        	call	c_ldiv
2492  0412 cd04bf        	call	LC008
2493  0415 6b02          	ld	(OFST-5,sp),a
2495                     ; 314     ch[2] = (((value % 1000) / 100) + 0x30);  
2497  0417 96            	ldw	x,sp
2498  0418 cd04db        	call	LC011
2499  041b cd04f8        	call	LC014
2501  041e cd04bf        	call	LC008
2502  0421 6b03          	ld	(OFST-4,sp),a
2504                     ; 315     ch[3] = (((value % 100) / 10) + 0x30);  
2506  0423 96            	ldw	x,sp
2507  0424 cd04d1        	call	LC010
2508  0427 cd04ef        	call	LC013
2510  042a cd04bf        	call	LC008
2511  042d 6b04          	ld	(OFST-3,sp),a
2513                     ; 316     ch[4] = ((value % 10) + 0x30);
2515  042f 96            	ldw	x,sp
2516  0430 cd04c7        	call	LC009
2517  0433 cd0000        	call	c_lmod
2519  0436 cd04bf        	call	LC008
2520  0439 6b05          	ld	(OFST-2,sp),a
2522                     ; 317     ch[5] = 0x20;
2524  043b a620          	ld	a,#32
2526  043d 206e          	jra	L366
2527  043f               L566:
2528                     ; 319   else if((value > 99) && (value <= 999))
2530  043f 96            	ldw	x,sp
2531  0440 cd04d1        	call	LC010
2532  0443 cd0000        	call	c_lcmp
2534  0446 2f2b          	jrslt	L176
2536  0448 96            	ldw	x,sp
2537  0449 cd04db        	call	LC011
2538  044c cd0000        	call	c_lcmp
2540  044f 2e22          	jrsge	L176
2541                     ; 321     ch[1] = ((value / 100) + 0x30);  
2543  0451 96            	ldw	x,sp
2544  0452 ad7d          	call	LC010
2545  0454 cd0000        	call	c_ldiv
2547  0457 ad66          	call	LC008
2548  0459 6b02          	ld	(OFST-5,sp),a
2550                     ; 322     ch[2] = (((value % 100) / 10) + 0x30);  
2552  045b 96            	ldw	x,sp
2553  045c ad73          	call	LC010
2554  045e cd04ef        	call	LC013
2556  0461 ad5c          	call	LC008
2557  0463 6b03          	ld	(OFST-4,sp),a
2559                     ; 323     ch[3] = ((value % 10) + 0x30);
2561  0465 96            	ldw	x,sp
2562  0466 ad5f          	call	LC009
2563  0468 cd0000        	call	c_lmod
2565  046b ad52          	call	LC008
2566  046d 6b04          	ld	(OFST-3,sp),a
2568                     ; 324     ch[4] = 0x20;
2570  046f a620          	ld	a,#32
2571                     ; 325     ch[5] = 0x20;
2573  0471 2038          	jp	LC006
2574  0473               L176:
2575                     ; 327   else if((value > 9) && (value <= 99))
2577  0473 96            	ldw	x,sp
2578  0474 ad51          	call	LC009
2579  0476 cd0000        	call	c_lcmp
2581  0479 2f20          	jrslt	L576
2583  047b 96            	ldw	x,sp
2584  047c ad53          	call	LC010
2585  047e cd0000        	call	c_lcmp
2587  0481 2e18          	jrsge	L576
2588                     ; 329     ch[1] = ((value / 10) + 0x30);  
2590  0483 96            	ldw	x,sp
2591  0484 ad41          	call	LC009
2592  0486 cd0000        	call	c_ldiv
2594  0489 ad34          	call	LC008
2595  048b 6b02          	ld	(OFST-5,sp),a
2597                     ; 330     ch[2] = ((value % 10) + 0x30);
2599  048d 96            	ldw	x,sp
2600  048e ad37          	call	LC009
2601  0490 cd0000        	call	c_lmod
2603  0493 ad2a          	call	LC008
2604  0495 6b03          	ld	(OFST-4,sp),a
2606                     ; 331     ch[3] = 0x20;
2608  0497 a620          	ld	a,#32
2609                     ; 332     ch[4] = 0x20;
2610                     ; 333     ch[5] = 0x20;
2612  0499 200e          	jp	LC007
2613  049b               L576:
2614                     ; 337     ch[1] = ((value % 10) + 0x30);
2616  049b 96            	ldw	x,sp
2617  049c ad29          	call	LC009
2618  049e cd0000        	call	c_lmod
2620  04a1 ad1c          	call	LC008
2621  04a3 6b02          	ld	(OFST-5,sp),a
2623                     ; 338     ch[2] = 0x20;
2625  04a5 a620          	ld	a,#32
2626  04a7 6b03          	ld	(OFST-4,sp),a
2628                     ; 339     ch[3] = 0x20;
2630  04a9               LC007:
2631  04a9 6b04          	ld	(OFST-3,sp),a
2633                     ; 340     ch[4] = 0x20;
2635  04ab               LC006:
2637  04ab 6b05          	ld	(OFST-2,sp),a
2639                     ; 341     ch[5] = 0x20;
2641  04ad               L366:
2644  04ad 6b06          	ld	(OFST-1,sp),a
2646                     ; 344   OLED_print_string(x_pos, y_pos, ch);
2648  04af 96            	ldw	x,sp
2649  04b0 5c            	incw	x
2650  04b1 89            	pushw	x
2651  04b2 7b0b          	ld	a,(OFST+4,sp)
2652  04b4 97            	ld	xl,a
2653  04b5 7b0a          	ld	a,(OFST+3,sp)
2654  04b7 95            	ld	xh,a
2655  04b8 cd02ce        	call	_OLED_print_string
2657  04bb 85            	popw	x
2658                     ; 345 }
2661  04bc 5b09          	addw	sp,#9
2662  04be 81            	ret	
2663  04bf               LC008:
2664  04bf a630          	ld	a,#48
2665  04c1 cd0000        	call	c_ladc
2667  04c4 b603          	ld	a,c_lreg+3
2668  04c6 81            	ret	
2669  04c7               LC009:
2670  04c7 1c000c        	addw	x,#OFST+5
2671  04ca cd0000        	call	c_ltor
2673  04cd ae0244        	ldw	x,#L223
2674  04d0 81            	ret	
2675  04d1               LC010:
2676  04d1 1c000c        	addw	x,#OFST+5
2677  04d4 cd0000        	call	c_ltor
2679  04d7 ae0240        	ldw	x,#L023
2680  04da 81            	ret	
2681  04db               LC011:
2682  04db 1c000c        	addw	x,#OFST+5
2683  04de cd0000        	call	c_ltor
2685  04e1 ae023c        	ldw	x,#L613
2686  04e4 81            	ret	
2687  04e5               LC012:
2688  04e5 1c000c        	addw	x,#OFST+5
2689  04e8 cd0000        	call	c_ltor
2691  04eb ae0238        	ldw	x,#L413
2692  04ee 81            	ret	
2693  04ef               LC013:
2694  04ef cd0000        	call	c_lmod
2696  04f2 ae0244        	ldw	x,#L223
2697  04f5 cc0000        	jp	c_ldiv
2698  04f8               LC014:
2699  04f8 cd0000        	call	c_lmod
2701  04fb ae0240        	ldw	x,#L023
2702  04fe cc0000        	jp	c_ldiv
2705                     	switch	.const
2706  0248               L107_ch:
2707  0248 2e            	dc.b	46
2708  0249 20            	dc.b	32
2709  024a 20            	dc.b	32
2710  024b 20            	dc.b	32
2711  024c 20            	dc.b	32
2712  024d 0a            	dc.b	10
2774                     ; 348 void OLED_print_decimal(unsigned char x_pos, unsigned char y_pos, unsigned int value, unsigned char points)
2774                     ; 349 {
2775                     	switch	.text
2776  0501               _OLED_print_decimal:
2778  0501 89            	pushw	x
2779  0502 5206          	subw	sp,#6
2780       00000006      OFST:	set	6
2783                     ; 350    char ch[6] = {0x2E, 0x20, 0x20, 0x20, 0x20, '\n'};
2785  0504 96            	ldw	x,sp
2786  0505 5c            	incw	x
2787  0506 90ae0248      	ldw	y,#L107_ch
2788  050a a606          	ld	a,#6
2789  050c cd0000        	call	c_xymvx
2791                     ; 352   ch[1] = ((value / 1000) + 0x30);
2793  050f 1e0b          	ldw	x,(OFST+5,sp)
2794  0511 90ae03e8      	ldw	y,#1000
2795  0515 65            	divw	x,y
2796  0516 1c0030        	addw	x,#48
2797  0519 01            	rrwa	x,a
2798  051a 6b02          	ld	(OFST-4,sp),a
2800                     ; 354   if(points > 1)
2802  051c 7b0d          	ld	a,(OFST+7,sp)
2803  051e a102          	cp	a,#2
2804  0520 253a          	jrult	L137
2805                     ; 356     ch[2] = (((value % 1000) / 100) + 0x30);
2807  0522 1e0b          	ldw	x,(OFST+5,sp)
2808  0524 90ae03e8      	ldw	y,#1000
2809  0528 65            	divw	x,y
2810  0529 93            	ldw	x,y
2811  052a a664          	ld	a,#100
2812  052c 62            	div	x,a
2813  052d 1c0030        	addw	x,#48
2814  0530 01            	rrwa	x,a
2815  0531 6b03          	ld	(OFST-3,sp),a
2817                     ; 358     if(points > 2)
2819  0533 7b0d          	ld	a,(OFST+7,sp)
2820  0535 a103          	cp	a,#3
2821  0537 2523          	jrult	L137
2822                     ; 360       ch[3] = (((value % 100) / 10) + 0x30);
2824  0539 1e0b          	ldw	x,(OFST+5,sp)
2825  053b a664          	ld	a,#100
2826  053d 62            	div	x,a
2827  053e 5f            	clrw	x
2828  053f 97            	ld	xl,a
2829  0540 a60a          	ld	a,#10
2830  0542 62            	div	x,a
2831  0543 1c0030        	addw	x,#48
2832  0546 01            	rrwa	x,a
2833  0547 6b04          	ld	(OFST-2,sp),a
2835                     ; 362       if(points > 3)
2837  0549 7b0d          	ld	a,(OFST+7,sp)
2838  054b a104          	cp	a,#4
2839  054d 250d          	jrult	L137
2840                     ; 364         ch[4] = ((value % 10) + 0x30);
2842  054f 1e0b          	ldw	x,(OFST+5,sp)
2843  0551 a60a          	ld	a,#10
2844  0553 62            	div	x,a
2845  0554 5f            	clrw	x
2846  0555 97            	ld	xl,a
2847  0556 1c0030        	addw	x,#48
2848  0559 01            	rrwa	x,a
2849  055a 6b05          	ld	(OFST-1,sp),a
2851  055c               L137:
2852                     ; 369   OLED_print_string(x_pos, y_pos, ch);
2854  055c 96            	ldw	x,sp
2855  055d 5c            	incw	x
2856  055e 89            	pushw	x
2857  055f 7b0a          	ld	a,(OFST+4,sp)
2858  0561 97            	ld	xl,a
2859  0562 7b09          	ld	a,(OFST+3,sp)
2860  0564 95            	ld	xh,a
2861  0565 cd02ce        	call	_OLED_print_string
2863  0568 85            	popw	x
2864                     ; 370 }
2867  0569 5b08          	addw	sp,#8
2868  056b 81            	ret	
2931                     ; 373 void OLED_print_float(unsigned char x_pos, unsigned char y_pos, float value, unsigned char points)
2931                     ; 374 {
2932                     	switch	.text
2933  056c               _OLED_print_float:
2935  056c 89            	pushw	x
2936  056d 5208          	subw	sp,#8
2937       00000008      OFST:	set	8
2940                     ; 375   signed long tmp = 0;
2942                     ; 377   tmp = value;
2944  056f 96            	ldw	x,sp
2945  0570 1c000d        	addw	x,#OFST+5
2946  0573 cd0000        	call	c_ltor
2948  0576 cd0000        	call	c_ftol
2950  0579 96            	ldw	x,sp
2951  057a 1c0005        	addw	x,#OFST-3
2952  057d cd0000        	call	c_rtol
2955                     ; 378   OLED_print_int(x_pos, y_pos, tmp);
2957  0580 1e07          	ldw	x,(OFST-1,sp)
2958  0582 89            	pushw	x
2959  0583 1e07          	ldw	x,(OFST-1,sp)
2960  0585 89            	pushw	x
2961  0586 7b0e          	ld	a,(OFST+6,sp)
2962  0588 97            	ld	xl,a
2963  0589 7b0d          	ld	a,(OFST+5,sp)
2964  058b 95            	ld	xh,a
2965  058c cd038b        	call	_OLED_print_int
2967  058f 5b04          	addw	sp,#4
2968                     ; 379   tmp = ((value - tmp) * 10000);
2970  0591 96            	ldw	x,sp
2971  0592 1c0005        	addw	x,#OFST-3
2972  0595 cd0000        	call	c_ltor
2974  0598 cd0000        	call	c_ltof
2976  059b 96            	ldw	x,sp
2977  059c 5c            	incw	x
2978  059d cd0000        	call	c_rtol
2981  05a0 96            	ldw	x,sp
2982  05a1 1c000d        	addw	x,#OFST+5
2983  05a4 cd0000        	call	c_ltor
2985  05a7 96            	ldw	x,sp
2986  05a8 5c            	incw	x
2987  05a9 cd0000        	call	c_fsub
2989  05ac ae024e        	ldw	x,#L767
2990  05af cd0000        	call	c_fmul
2992  05b2 cd0000        	call	c_ftol
2994  05b5 96            	ldw	x,sp
2995  05b6 1c0005        	addw	x,#OFST-3
2996  05b9 cd0000        	call	c_rtol
2999                     ; 381   if(tmp < 0)
3001  05bc 0d05          	tnz	(OFST-3,sp)
3002  05be 2a07          	jrpl	L377
3003                     ; 383     tmp = -tmp;
3005  05c0 96            	ldw	x,sp
3006  05c1 1c0005        	addw	x,#OFST-3
3007  05c4 cd0000        	call	c_lgneg
3010  05c7               L377:
3011                     ; 386   if((value >= 10000) && (value < 100000))
3013  05c7 ae2710        	ldw	x,#10000
3014  05ca cd0000        	call	c_itof
3016  05cd 96            	ldw	x,sp
3017  05ce 5c            	incw	x
3018  05cf cd0000        	call	c_rtol
3021  05d2 96            	ldw	x,sp
3022  05d3 1c000d        	addw	x,#OFST+5
3023  05d6 cd0000        	call	c_ltor
3025  05d9 96            	ldw	x,sp
3026  05da 5c            	incw	x
3027  05db cd0000        	call	c_fcmp
3029  05de 2f30          	jrslt	L577
3031  05e0 ae86a0        	ldw	x,#34464
3032  05e3 bf02          	ldw	c_lreg+2,x
3033  05e5 ae0001        	ldw	x,#1
3034  05e8 bf00          	ldw	c_lreg,x
3035  05ea cd0000        	call	c_ltof
3037  05ed 96            	ldw	x,sp
3038  05ee 5c            	incw	x
3039  05ef cd0000        	call	c_rtol
3042  05f2 96            	ldw	x,sp
3043  05f3 1c000d        	addw	x,#OFST+5
3044  05f6 cd0000        	call	c_ltor
3046  05f9 96            	ldw	x,sp
3047  05fa 5c            	incw	x
3048  05fb cd0000        	call	c_fcmp
3050  05fe 2e10          	jrsge	L577
3051                     ; 388     OLED_print_decimal((x_pos + 36), y_pos, tmp, points);
3053  0600 7b11          	ld	a,(OFST+9,sp)
3054  0602 88            	push	a
3055  0603 1e08          	ldw	x,(OFST+0,sp)
3056  0605 89            	pushw	x
3057  0606 7b0d          	ld	a,(OFST+5,sp)
3058  0608 97            	ld	xl,a
3059  0609 7b0c          	ld	a,(OFST+4,sp)
3060  060b ab24          	add	a,#36
3063  060d cc06ce        	jp	LC016
3064  0610               L577:
3065                     ; 390   else if((value >= 1000) && (value < 10000))
3067  0610 ae03e8        	ldw	x,#1000
3068  0613 cd0000        	call	c_itof
3070  0616 96            	ldw	x,sp
3071  0617 5c            	incw	x
3072  0618 cd0000        	call	c_rtol
3075  061b 96            	ldw	x,sp
3076  061c 1c000d        	addw	x,#OFST+5
3077  061f cd0000        	call	c_ltor
3079  0622 96            	ldw	x,sp
3080  0623 5c            	incw	x
3081  0624 cd0000        	call	c_fcmp
3083  0627 2f28          	jrslt	L1001
3085  0629 ae2710        	ldw	x,#10000
3086  062c cd0000        	call	c_itof
3088  062f 96            	ldw	x,sp
3089  0630 5c            	incw	x
3090  0631 cd0000        	call	c_rtol
3093  0634 96            	ldw	x,sp
3094  0635 1c000d        	addw	x,#OFST+5
3095  0638 cd0000        	call	c_ltor
3097  063b 96            	ldw	x,sp
3098  063c 5c            	incw	x
3099  063d cd0000        	call	c_fcmp
3101  0640 2e0f          	jrsge	L1001
3102                     ; 392     OLED_print_decimal((x_pos + 30), y_pos, tmp, points);
3104  0642 7b11          	ld	a,(OFST+9,sp)
3105  0644 88            	push	a
3106  0645 1e08          	ldw	x,(OFST+0,sp)
3107  0647 89            	pushw	x
3108  0648 7b0d          	ld	a,(OFST+5,sp)
3109  064a 97            	ld	xl,a
3110  064b 7b0c          	ld	a,(OFST+4,sp)
3111  064d ab1e          	add	a,#30
3114  064f 207d          	jp	LC016
3115  0651               L1001:
3116                     ; 394   else if((value >= 100) && (value < 1000))
3118  0651 a664          	ld	a,#100
3119  0653 cd0000        	call	c_ctof
3121  0656 96            	ldw	x,sp
3122  0657 5c            	incw	x
3123  0658 cd0000        	call	c_rtol
3126  065b 96            	ldw	x,sp
3127  065c 1c000d        	addw	x,#OFST+5
3128  065f cd0000        	call	c_ltor
3130  0662 96            	ldw	x,sp
3131  0663 5c            	incw	x
3132  0664 cd0000        	call	c_fcmp
3134  0667 2f28          	jrslt	L5001
3136  0669 ae03e8        	ldw	x,#1000
3137  066c cd0000        	call	c_itof
3139  066f 96            	ldw	x,sp
3140  0670 5c            	incw	x
3141  0671 cd0000        	call	c_rtol
3144  0674 96            	ldw	x,sp
3145  0675 1c000d        	addw	x,#OFST+5
3146  0678 cd0000        	call	c_ltor
3148  067b 96            	ldw	x,sp
3149  067c 5c            	incw	x
3150  067d cd0000        	call	c_fcmp
3152  0680 2e0f          	jrsge	L5001
3153                     ; 396     OLED_print_decimal((x_pos + 24), y_pos, tmp, points);
3155  0682 7b11          	ld	a,(OFST+9,sp)
3156  0684 88            	push	a
3157  0685 1e08          	ldw	x,(OFST+0,sp)
3158  0687 89            	pushw	x
3159  0688 7b0d          	ld	a,(OFST+5,sp)
3160  068a 97            	ld	xl,a
3161  068b 7b0c          	ld	a,(OFST+4,sp)
3162  068d ab18          	add	a,#24
3165  068f 203d          	jp	LC016
3166  0691               L5001:
3167                     ; 398   else if((value >= 10) && (value < 100))
3169  0691 a60a          	ld	a,#10
3170  0693 cd0000        	call	c_ctof
3172  0696 96            	ldw	x,sp
3173  0697 5c            	incw	x
3174  0698 cd0000        	call	c_rtol
3177  069b 96            	ldw	x,sp
3178  069c 1c000d        	addw	x,#OFST+5
3179  069f cd0000        	call	c_ltor
3181  06a2 96            	ldw	x,sp
3182  06a3 5c            	incw	x
3183  06a4 cd0000        	call	c_fcmp
3185  06a7 2f2d          	jrslt	L1101
3187  06a9 a664          	ld	a,#100
3188  06ab cd0000        	call	c_ctof
3190  06ae 96            	ldw	x,sp
3191  06af 5c            	incw	x
3192  06b0 cd0000        	call	c_rtol
3195  06b3 96            	ldw	x,sp
3196  06b4 1c000d        	addw	x,#OFST+5
3197  06b7 cd0000        	call	c_ltor
3199  06ba 96            	ldw	x,sp
3200  06bb 5c            	incw	x
3201  06bc cd0000        	call	c_fcmp
3203  06bf 2e15          	jrsge	L1101
3204                     ; 400     OLED_print_decimal((x_pos + 18), y_pos, tmp, points);
3206  06c1 7b11          	ld	a,(OFST+9,sp)
3207  06c3 88            	push	a
3208  06c4 1e08          	ldw	x,(OFST+0,sp)
3209  06c6 89            	pushw	x
3210  06c7 7b0d          	ld	a,(OFST+5,sp)
3211  06c9 97            	ld	xl,a
3212  06ca 7b0c          	ld	a,(OFST+4,sp)
3213  06cc ab12          	add	a,#18
3215  06ce               LC016:
3216  06ce 95            	ld	xh,a
3217  06cf cd0501        	call	_OLED_print_decimal
3218  06d2 5b03          	addw	sp,#3
3220  06d4 203f          	jra	L777
3221  06d6               L1101:
3222                     ; 402   else if(value < 10)
3224  06d6 a60a          	ld	a,#10
3225  06d8 cd0000        	call	c_ctof
3227  06db 96            	ldw	x,sp
3228  06dc 5c            	incw	x
3229  06dd cd0000        	call	c_rtol
3232  06e0 96            	ldw	x,sp
3233  06e1 1c000d        	addw	x,#OFST+5
3234  06e4 cd0000        	call	c_ltor
3236  06e7 96            	ldw	x,sp
3237  06e8 5c            	incw	x
3238  06e9 cd0000        	call	c_fcmp
3240  06ec 2e27          	jrsge	L777
3241                     ; 404     OLED_print_decimal((x_pos + 12), y_pos, tmp, points);
3243  06ee 7b11          	ld	a,(OFST+9,sp)
3244  06f0 88            	push	a
3245  06f1 1e08          	ldw	x,(OFST+0,sp)
3246  06f3 89            	pushw	x
3247  06f4 7b0d          	ld	a,(OFST+5,sp)
3248  06f6 97            	ld	xl,a
3249  06f7 7b0c          	ld	a,(OFST+4,sp)
3250  06f9 ab0c          	add	a,#12
3251  06fb 95            	ld	xh,a
3252  06fc cd0501        	call	_OLED_print_decimal
3254  06ff 5b03          	addw	sp,#3
3255                     ; 406     if(value < 0)
3257  0701 7b0d          	ld	a,(OFST+5,sp)
3258  0703 2a04          	jrpl	L7101
3259                     ; 408         OLED_print_char(x_pos, y_pos, 0x2D);
3261  0705 4b2d          	push	#45
3264  0707 2002          	jp	LC015
3265  0709               L7101:
3266                     ; 412         OLED_print_char(x_pos, y_pos, 0x20);
3268  0709 4b20          	push	#32
3270  070b               LC015:
3271  070b 7b0b          	ld	a,(OFST+3,sp)
3272  070d 97            	ld	xl,a
3273  070e 7b0a          	ld	a,(OFST+2,sp)
3274  0710 95            	ld	xh,a
3275  0711 cd0290        	call	_OLED_print_char
3276  0714 84            	pop	a
3277  0715               L777:
3278                     ; 415 }
3281  0715 5b0a          	addw	sp,#10
3282  0717 81            	ret	
3352                     ; 418 void Draw_Pixel(unsigned char x_pos, unsigned char y_pos, unsigned char colour)
3352                     ; 419 {
3353                     	switch	.text
3354  0718               _Draw_Pixel:
3356  0718 89            	pushw	x
3357  0719 5203          	subw	sp,#3
3358       00000003      OFST:	set	3
3361                     ; 420     unsigned char value = 0x00;
3363                     ; 421     unsigned char page = 0x00;
3365                     ; 422     unsigned char bit_pos = 0x00;
3367                     ; 424     page = (y_pos / y_max);
3369  071b 9f            	ld	a,xl
3370  071c 5f            	clrw	x
3371  071d 97            	ld	xl,a
3372  071e 57            	sraw	x
3373  071f 57            	sraw	x
3374  0720 57            	sraw	x
3375  0721 01            	rrwa	x,a
3376  0722 6b03          	ld	(OFST+0,sp),a
3378                     ; 425     bit_pos = (y_pos - (page * y_max));
3380  0724 48            	sll	a
3381  0725 48            	sll	a
3382  0726 48            	sll	a
3383  0727 1005          	sub	a,(OFST+2,sp)
3384  0729 40            	neg	a
3385  072a 6b01          	ld	(OFST-2,sp),a
3387                     ; 426     value = buffer[((page * x_max) + x_pos)];
3389  072c 7b03          	ld	a,(OFST+0,sp)
3390  072e 97            	ld	xl,a
3391  072f a680          	ld	a,#128
3392  0731 42            	mul	x,a
3393  0732 01            	rrwa	x,a
3394  0733 1b04          	add	a,(OFST+1,sp)
3395  0735 2401          	jrnc	L653
3396  0737 5c            	incw	x
3397  0738               L653:
3398  0738 02            	rlwa	x,a
3399  0739 d60000        	ld	a,(_buffer,x)
3400  073c 6b02          	ld	(OFST-1,sp),a
3402                     ; 428     if((colour & YES) != NO)
3404  073e 7b08          	ld	a,(OFST+5,sp)
3405  0740 a501          	bcp	a,#1
3406  0742 2711          	jreq	L1501
3407                     ; 430         value |= (1 << bit_pos);
3409  0744 7b01          	ld	a,(OFST-2,sp)
3410  0746 5f            	clrw	x
3411  0747 97            	ld	xl,a
3412  0748 a601          	ld	a,#1
3413  074a 5d            	tnzw	x
3414  074b 2704          	jreq	L063
3415  074d               L263:
3416  074d 48            	sll	a
3417  074e 5a            	decw	x
3418  074f 26fc          	jrne	L263
3419  0751               L063:
3420  0751 1a02          	or	a,(OFST-1,sp)
3422  0753 2010          	jra	L3501
3423  0755               L1501:
3424                     ; 434         value &= (~(1 << bit_pos));
3426  0755 7b01          	ld	a,(OFST-2,sp)
3427  0757 5f            	clrw	x
3428  0758 97            	ld	xl,a
3429  0759 a601          	ld	a,#1
3430  075b 5d            	tnzw	x
3431  075c 2704          	jreq	L463
3432  075e               L663:
3433  075e 48            	sll	a
3434  075f 5a            	decw	x
3435  0760 26fc          	jrne	L663
3436  0762               L463:
3437  0762 43            	cpl	a
3438  0763 1402          	and	a,(OFST-1,sp)
3439  0765               L3501:
3440  0765 6b02          	ld	(OFST-1,sp),a
3442                     ; 437     buffer[((page * x_max) + x_pos)] = value;
3444  0767 7b03          	ld	a,(OFST+0,sp)
3445  0769 97            	ld	xl,a
3446  076a a680          	ld	a,#128
3447  076c 42            	mul	x,a
3448  076d 01            	rrwa	x,a
3449  076e 1b04          	add	a,(OFST+1,sp)
3450  0770 2401          	jrnc	L073
3451  0772 5c            	incw	x
3452  0773               L073:
3453  0773 02            	rlwa	x,a
3454  0774 7b02          	ld	a,(OFST-1,sp)
3455  0776 d70000        	ld	(_buffer,x),a
3456                     ; 438     OLED_gotoxy(x_pos, page);
3458  0779 7b03          	ld	a,(OFST+0,sp)
3459  077b 97            	ld	xl,a
3460  077c 7b04          	ld	a,(OFST+1,sp)
3461  077e 95            	ld	xh,a
3462  077f cd0128        	call	_OLED_gotoxy
3464                     ; 439     OLED_write(value, DAT);
3466  0782 7b02          	ld	a,(OFST-1,sp)
3467  0784 ae0060        	ldw	x,#96
3468  0787 95            	ld	xh,a
3469  0788 cd00df        	call	_OLED_write
3471                     ; 440 }
3474  078b 5b05          	addw	sp,#5
3475  078d 81            	ret	
3571                     ; 443 void Draw_Line(signed int x1, signed int y1, signed int x2, signed int y2, unsigned char colour)
3571                     ; 444 {
3572                     	switch	.text
3573  078e               _Draw_Line:
3575  078e 89            	pushw	x
3576  078f 520c          	subw	sp,#12
3577       0000000c      OFST:	set	12
3580                     ; 445     signed int dx = 0x0000;
3582                     ; 446     signed int dy = 0x0000;
3584                     ; 447     signed int stepx = 0x0000;
3586                     ; 448     signed int stepy = 0x0000;
3588                     ; 449     signed int fraction = 0x0000;
3590                     ; 451     dy = (y2 - y1);
3592  0791 1e15          	ldw	x,(OFST+9,sp)
3593  0793 72f011        	subw	x,(OFST+5,sp)
3594  0796 1f09          	ldw	(OFST-3,sp),x
3596                     ; 452     dx = (x2 - x1);
3598  0798 1e13          	ldw	x,(OFST+7,sp)
3599  079a 72f00d        	subw	x,(OFST+1,sp)
3600  079d 1f07          	ldw	(OFST-5,sp),x
3602                     ; 454     if (dy < 0)
3604  079f 1e09          	ldw	x,(OFST-3,sp)
3605  07a1 2a08          	jrpl	L3111
3606                     ; 456         dy = -dy;
3608  07a3 50            	negw	x
3609  07a4 1f09          	ldw	(OFST-3,sp),x
3611                     ; 457         stepy = -1;
3613  07a6 aeffff        	ldw	x,#65535
3615  07a9 2003          	jra	L5111
3616  07ab               L3111:
3617                     ; 461         stepy = 1;
3619  07ab ae0001        	ldw	x,#1
3620  07ae               L5111:
3621  07ae 1f05          	ldw	(OFST-7,sp),x
3623                     ; 464     if (dx < 0)
3625  07b0 1e07          	ldw	x,(OFST-5,sp)
3626  07b2 2a08          	jrpl	L7111
3627                     ; 466         dx = -dx;
3629  07b4 50            	negw	x
3630  07b5 1f07          	ldw	(OFST-5,sp),x
3632                     ; 467         stepx = -1;
3634  07b7 aeffff        	ldw	x,#65535
3636  07ba 2003          	jra	L1211
3637  07bc               L7111:
3638                     ; 471         stepx = 1;
3640  07bc ae0001        	ldw	x,#1
3641  07bf               L1211:
3642  07bf 1f03          	ldw	(OFST-9,sp),x
3644                     ; 474     dx <<= 1;
3646  07c1 0808          	sll	(OFST-4,sp)
3647  07c3 0907          	rlc	(OFST-5,sp)
3649                     ; 475     dy <<= 1;
3651  07c5 080a          	sll	(OFST-2,sp)
3652  07c7 0909          	rlc	(OFST-3,sp)
3654                     ; 477     Draw_Pixel(x1, y1, colour);
3656  07c9 7b17          	ld	a,(OFST+11,sp)
3657  07cb 88            	push	a
3658  07cc 7b13          	ld	a,(OFST+7,sp)
3659  07ce 97            	ld	xl,a
3660  07cf 7b0f          	ld	a,(OFST+3,sp)
3661  07d1 95            	ld	xh,a
3662  07d2 cd0718        	call	_Draw_Pixel
3664  07d5 84            	pop	a
3665                     ; 479     if(dx > dy)
3667  07d6 1e07          	ldw	x,(OFST-5,sp)
3668  07d8 1309          	cpw	x,(OFST-3,sp)
3669  07da 2d42          	jrsle	L3211
3670                     ; 481         fraction = (dy - (dx >> 1));
3672  07dc 57            	sraw	x
3673  07dd 1f01          	ldw	(OFST-11,sp),x
3675  07df 1e09          	ldw	x,(OFST-3,sp)
3676  07e1 72f001        	subw	x,(OFST-11,sp)
3677  07e4 1f0b          	ldw	(OFST-1,sp),x
3680  07e6 202d          	jra	L1311
3681  07e8               L5211:
3682                     ; 484             if(fraction >= 0)
3684  07e8 1e0b          	ldw	x,(OFST-1,sp)
3685  07ea 2b0e          	jrmi	L5311
3686                     ; 486                 y1 += stepy;
3688  07ec 1e11          	ldw	x,(OFST+5,sp)
3689  07ee 72fb05        	addw	x,(OFST-7,sp)
3690  07f1 1f11          	ldw	(OFST+5,sp),x
3691                     ; 487                 fraction -= dx;
3693  07f3 1e0b          	ldw	x,(OFST-1,sp)
3694  07f5 72f007        	subw	x,(OFST-5,sp)
3695  07f8 1f0b          	ldw	(OFST-1,sp),x
3697  07fa               L5311:
3698                     ; 490             x1 += stepx;
3700  07fa 1e0d          	ldw	x,(OFST+1,sp)
3701  07fc 72fb03        	addw	x,(OFST-9,sp)
3702  07ff 1f0d          	ldw	(OFST+1,sp),x
3703                     ; 491             fraction += dy;
3705  0801 1e0b          	ldw	x,(OFST-1,sp)
3706  0803 72fb09        	addw	x,(OFST-3,sp)
3707  0806 1f0b          	ldw	(OFST-1,sp),x
3709                     ; 493             Draw_Pixel(x1, y1, colour);
3711  0808 7b17          	ld	a,(OFST+11,sp)
3712  080a 88            	push	a
3713  080b 7b13          	ld	a,(OFST+7,sp)
3714  080d 97            	ld	xl,a
3715  080e 7b0f          	ld	a,(OFST+3,sp)
3716  0810 95            	ld	xh,a
3717  0811 cd0718        	call	_Draw_Pixel
3719  0814 84            	pop	a
3720  0815               L1311:
3721                     ; 482         while (x1 != x2)
3723  0815 1e0d          	ldw	x,(OFST+1,sp)
3724  0817 1313          	cpw	x,(OFST+7,sp)
3725  0819 26cd          	jrne	L5211
3727  081b               L7311:
3728                     ; 513 }
3731  081b 5b0e          	addw	sp,#14
3732  081d 81            	ret	
3733  081e               L3211:
3734                     ; 498         fraction = (dx - (dy >> 1));
3736  081e 1e09          	ldw	x,(OFST-3,sp)
3737  0820 57            	sraw	x
3738  0821 1f01          	ldw	(OFST-11,sp),x
3740  0823 1e07          	ldw	x,(OFST-5,sp)
3741  0825 72f001        	subw	x,(OFST-11,sp)
3742  0828 1f0b          	ldw	(OFST-1,sp),x
3745  082a 202d          	jra	L5411
3746  082c               L1411:
3747                     ; 501             if (fraction >= 0)
3749  082c 1e0b          	ldw	x,(OFST-1,sp)
3750  082e 2b0e          	jrmi	L1511
3751                     ; 503                 x1 += stepx;
3753  0830 1e0d          	ldw	x,(OFST+1,sp)
3754  0832 72fb03        	addw	x,(OFST-9,sp)
3755  0835 1f0d          	ldw	(OFST+1,sp),x
3756                     ; 504                 fraction -= dy;
3758  0837 1e0b          	ldw	x,(OFST-1,sp)
3759  0839 72f009        	subw	x,(OFST-3,sp)
3760  083c 1f0b          	ldw	(OFST-1,sp),x
3762  083e               L1511:
3763                     ; 507             y1 += stepy;
3765  083e 1e11          	ldw	x,(OFST+5,sp)
3766  0840 72fb05        	addw	x,(OFST-7,sp)
3767  0843 1f11          	ldw	(OFST+5,sp),x
3768                     ; 508             fraction += dx;
3770  0845 1e0b          	ldw	x,(OFST-1,sp)
3771  0847 72fb07        	addw	x,(OFST-5,sp)
3772  084a 1f0b          	ldw	(OFST-1,sp),x
3774                     ; 510             Draw_Pixel(x1, y1, colour);
3776  084c 7b17          	ld	a,(OFST+11,sp)
3777  084e 88            	push	a
3778  084f 7b13          	ld	a,(OFST+7,sp)
3779  0851 97            	ld	xl,a
3780  0852 7b0f          	ld	a,(OFST+3,sp)
3781  0854 95            	ld	xh,a
3782  0855 cd0718        	call	_Draw_Pixel
3784  0858 84            	pop	a
3785  0859               L5411:
3786                     ; 499         while (y1 != y2)
3788  0859 1e11          	ldw	x,(OFST+5,sp)
3789  085b 1315          	cpw	x,(OFST+9,sp)
3790  085d 26cd          	jrne	L1411
3791  085f 20ba          	jra	L7311
3902                     ; 516 void Draw_Rectangle(signed int x1, signed int y1, signed int x2, signed int y2, unsigned char fill, unsigned char colour, unsigned char type)
3902                     ; 517 {
3903                     	switch	.text
3904  0861               _Draw_Rectangle:
3906  0861 89            	pushw	x
3907  0862 520a          	subw	sp,#10
3908       0000000a      OFST:	set	10
3911                     ; 518      unsigned short i = 0x00;
3913                     ; 519      unsigned short xmin = 0x00;
3915                     ; 520      unsigned short xmax = 0x00;
3917                     ; 521      unsigned short ymin = 0x00;
3919                     ; 522      unsigned short ymax = 0x00;
3921                     ; 524      if(fill != NO)
3923  0864 7b15          	ld	a,(OFST+11,sp)
3924  0866 274f          	jreq	L5121
3925                     ; 526         if(x1 < x2)
3927  0868 1311          	cpw	x,(OFST+7,sp)
3928  086a 2e06          	jrsge	L7121
3929                     ; 528            xmin = x1;
3931  086c 1f07          	ldw	(OFST-3,sp),x
3933                     ; 529            xmax = x2;
3935  086e 1e11          	ldw	x,(OFST+7,sp)
3937  0870 2006          	jra	L1221
3938  0872               L7121:
3939                     ; 533            xmin = x2;
3941  0872 1e11          	ldw	x,(OFST+7,sp)
3942  0874 1f07          	ldw	(OFST-3,sp),x
3944                     ; 534            xmax = x1;
3946  0876 1e0b          	ldw	x,(OFST+1,sp)
3947  0878               L1221:
3948  0878 1f01          	ldw	(OFST-9,sp),x
3950                     ; 537         if(y1 < y2)
3952  087a 1e0f          	ldw	x,(OFST+5,sp)
3953  087c 1313          	cpw	x,(OFST+9,sp)
3954  087e 2e06          	jrsge	L3221
3955                     ; 539            ymin = y1;
3957  0880 1f03          	ldw	(OFST-7,sp),x
3959                     ; 540            ymax = y2;
3961  0882 1e13          	ldw	x,(OFST+9,sp)
3963  0884 2006          	jp	LC017
3964  0886               L3221:
3965                     ; 544            ymin = y2;
3967  0886 1e13          	ldw	x,(OFST+9,sp)
3968  0888 1f03          	ldw	(OFST-7,sp),x
3970                     ; 545            ymax = y1;
3972  088a 1e0f          	ldw	x,(OFST+5,sp)
3973  088c               LC017:
3974  088c 1f05          	ldw	(OFST-5,sp),x
3976  088e 1e07          	ldw	x,(OFST-3,sp)
3977  0890 201f          	jra	L3321
3978  0892               L7221:
3979                     ; 550            for(i = ymin; i <= ymax; ++i)
3981  0892 1e03          	ldw	x,(OFST-7,sp)
3983  0894 2010          	jra	L3421
3984  0896               L7321:
3985                     ; 552                Draw_Pixel(xmin, i, colour);
3987  0896 7b16          	ld	a,(OFST+12,sp)
3988  0898 88            	push	a
3989  0899 7b0b          	ld	a,(OFST+1,sp)
3990  089b 97            	ld	xl,a
3991  089c 7b09          	ld	a,(OFST-1,sp)
3992  089e 95            	ld	xh,a
3993  089f cd0718        	call	_Draw_Pixel
3995  08a2 84            	pop	a
3996                     ; 550            for(i = ymin; i <= ymax; ++i)
3998  08a3 1e09          	ldw	x,(OFST-1,sp)
3999  08a5 5c            	incw	x
4000  08a6               L3421:
4001  08a6 1f09          	ldw	(OFST-1,sp),x
4005  08a8 1305          	cpw	x,(OFST-5,sp)
4006  08aa 23ea          	jrule	L7321
4007                     ; 548         for(; xmin <= xmax; ++xmin)
4009  08ac 1e07          	ldw	x,(OFST-3,sp)
4010  08ae 5c            	incw	x
4011  08af 1f07          	ldw	(OFST-3,sp),x
4013  08b1               L3321:
4016  08b1 1301          	cpw	x,(OFST-9,sp)
4017  08b3 23dd          	jrule	L7221
4019  08b5 204c          	jra	L7421
4020  08b7               L5121:
4021                     ; 559         Draw_Line(x1, y1, x2, y1, colour);
4023  08b7 7b16          	ld	a,(OFST+12,sp)
4024  08b9 88            	push	a
4025  08ba 1e10          	ldw	x,(OFST+6,sp)
4026  08bc 89            	pushw	x
4027  08bd 1e14          	ldw	x,(OFST+10,sp)
4028  08bf 89            	pushw	x
4029  08c0 1e14          	ldw	x,(OFST+10,sp)
4030  08c2 89            	pushw	x
4031  08c3 1e12          	ldw	x,(OFST+8,sp)
4032  08c5 cd078e        	call	_Draw_Line
4034  08c8 5b07          	addw	sp,#7
4035                     ; 560         Draw_Line(x1, y2, x2, y2, colour);
4037  08ca 7b16          	ld	a,(OFST+12,sp)
4038  08cc 88            	push	a
4039  08cd 1e14          	ldw	x,(OFST+10,sp)
4040  08cf 89            	pushw	x
4041  08d0 1e14          	ldw	x,(OFST+10,sp)
4042  08d2 89            	pushw	x
4043  08d3 1e18          	ldw	x,(OFST+14,sp)
4044  08d5 89            	pushw	x
4045  08d6 1e12          	ldw	x,(OFST+8,sp)
4046  08d8 cd078e        	call	_Draw_Line
4048  08db 5b07          	addw	sp,#7
4049                     ; 561         Draw_Line(x1, y1, x1, y2, colour);
4051  08dd 7b16          	ld	a,(OFST+12,sp)
4052  08df 88            	push	a
4053  08e0 1e14          	ldw	x,(OFST+10,sp)
4054  08e2 89            	pushw	x
4055  08e3 1e0e          	ldw	x,(OFST+4,sp)
4056  08e5 89            	pushw	x
4057  08e6 1e14          	ldw	x,(OFST+10,sp)
4058  08e8 89            	pushw	x
4059  08e9 1e12          	ldw	x,(OFST+8,sp)
4060  08eb cd078e        	call	_Draw_Line
4062  08ee 5b07          	addw	sp,#7
4063                     ; 562         Draw_Line(x2, y1, x2, y2, colour);
4065  08f0 7b16          	ld	a,(OFST+12,sp)
4066  08f2 88            	push	a
4067  08f3 1e14          	ldw	x,(OFST+10,sp)
4068  08f5 89            	pushw	x
4069  08f6 1e14          	ldw	x,(OFST+10,sp)
4070  08f8 89            	pushw	x
4071  08f9 1e14          	ldw	x,(OFST+10,sp)
4072  08fb 89            	pushw	x
4073  08fc 1e18          	ldw	x,(OFST+14,sp)
4074  08fe cd078e        	call	_Draw_Line
4076  0901 5b07          	addw	sp,#7
4077  0903               L7421:
4078                     ; 565      if(type != SQUARE)
4080  0903 7b17          	ld	a,(OFST+13,sp)
4081  0905 2738          	jreq	L1521
4082                     ; 567          Draw_Pixel(x1, y1, ~colour);
4084  0907 7b16          	ld	a,(OFST+12,sp)
4085  0909 43            	cpl	a
4086  090a 88            	push	a
4087  090b 7b11          	ld	a,(OFST+7,sp)
4088  090d 97            	ld	xl,a
4089  090e 7b0d          	ld	a,(OFST+3,sp)
4090  0910 95            	ld	xh,a
4091  0911 cd0718        	call	_Draw_Pixel
4093  0914 84            	pop	a
4094                     ; 568          Draw_Pixel(x1, y2, ~colour);
4096  0915 7b16          	ld	a,(OFST+12,sp)
4097  0917 43            	cpl	a
4098  0918 88            	push	a
4099  0919 7b15          	ld	a,(OFST+11,sp)
4100  091b 97            	ld	xl,a
4101  091c 7b0d          	ld	a,(OFST+3,sp)
4102  091e 95            	ld	xh,a
4103  091f cd0718        	call	_Draw_Pixel
4105  0922 84            	pop	a
4106                     ; 569          Draw_Pixel(x2, y1, ~colour);
4108  0923 7b16          	ld	a,(OFST+12,sp)
4109  0925 43            	cpl	a
4110  0926 88            	push	a
4111  0927 7b11          	ld	a,(OFST+7,sp)
4112  0929 97            	ld	xl,a
4113  092a 7b13          	ld	a,(OFST+9,sp)
4114  092c 95            	ld	xh,a
4115  092d cd0718        	call	_Draw_Pixel
4117  0930 84            	pop	a
4118                     ; 570          Draw_Pixel(x2, y2, ~colour);
4120  0931 7b16          	ld	a,(OFST+12,sp)
4121  0933 43            	cpl	a
4122  0934 88            	push	a
4123  0935 7b15          	ld	a,(OFST+11,sp)
4124  0937 97            	ld	xl,a
4125  0938 7b13          	ld	a,(OFST+9,sp)
4126  093a 95            	ld	xh,a
4127  093b cd0718        	call	_Draw_Pixel
4129  093e 84            	pop	a
4130  093f               L1521:
4131                     ; 572 }
4134  093f 5b0c          	addw	sp,#12
4135  0941 81            	ret	
4218                     ; 575 void Draw_Circle(signed int xc, signed int yc, signed int radius, unsigned char fill, unsigned char colour)
4218                     ; 576 {
4219                     	switch	.text
4220  0942               _Draw_Circle:
4222  0942 89            	pushw	x
4223  0943 5208          	subw	sp,#8
4224       00000008      OFST:	set	8
4227                     ; 577    signed int a = 0x0000;
4229  0945 5f            	clrw	x
4230  0946 1f07          	ldw	(OFST-1,sp),x
4232                     ; 578    signed int b = 0x0000;
4234                     ; 579    signed int P = 0x0000;
4236                     ; 581    b = radius;
4238  0948 1e0f          	ldw	x,(OFST+7,sp)
4239  094a 1f05          	ldw	(OFST-3,sp),x
4241                     ; 582    P = (1 - b);
4243  094c ae0001        	ldw	x,#1
4244  094f 72f005        	subw	x,(OFST-3,sp)
4245  0952 1f03          	ldw	(OFST-5,sp),x
4247  0954               L5031:
4248                     ; 586         if(fill != NO)
4250  0954 7b11          	ld	a,(OFST+9,sp)
4251  0956 2603cc09da    	jreq	L3131
4252                     ; 588            Draw_Line((xc - a), (yc + b), (xc + a), (yc + b), colour);
4254  095b 7b12          	ld	a,(OFST+10,sp)
4255  095d 88            	push	a
4256  095e 1e0e          	ldw	x,(OFST+6,sp)
4257  0960 72fb06        	addw	x,(OFST-2,sp)
4258  0963 89            	pushw	x
4259  0964 1e0c          	ldw	x,(OFST+4,sp)
4260  0966 72fb0a        	addw	x,(OFST+2,sp)
4261  0969 89            	pushw	x
4262  096a 1e12          	ldw	x,(OFST+10,sp)
4263  096c 72fb0a        	addw	x,(OFST+2,sp)
4264  096f 89            	pushw	x
4265  0970 1e10          	ldw	x,(OFST+8,sp)
4266  0972 72f00e        	subw	x,(OFST+6,sp)
4267  0975 cd078e        	call	_Draw_Line
4269  0978 5b07          	addw	sp,#7
4270                     ; 589            Draw_Line((xc - a), (yc - b), (xc + a), (yc - b), colour);
4272  097a 7b12          	ld	a,(OFST+10,sp)
4273  097c 88            	push	a
4274  097d 1e0e          	ldw	x,(OFST+6,sp)
4275  097f 72f006        	subw	x,(OFST-2,sp)
4276  0982 89            	pushw	x
4277  0983 1e0c          	ldw	x,(OFST+4,sp)
4278  0985 72fb0a        	addw	x,(OFST+2,sp)
4279  0988 89            	pushw	x
4280  0989 1e12          	ldw	x,(OFST+10,sp)
4281  098b 72f00a        	subw	x,(OFST+2,sp)
4282  098e 89            	pushw	x
4283  098f 1e10          	ldw	x,(OFST+8,sp)
4284  0991 72f00e        	subw	x,(OFST+6,sp)
4285  0994 cd078e        	call	_Draw_Line
4287  0997 5b07          	addw	sp,#7
4288                     ; 590            Draw_Line((xc - b), (yc + a), (xc + b), (yc + a), colour);
4290  0999 7b12          	ld	a,(OFST+10,sp)
4291  099b 88            	push	a
4292  099c 1e0e          	ldw	x,(OFST+6,sp)
4293  099e 72fb08        	addw	x,(OFST+0,sp)
4294  09a1 89            	pushw	x
4295  09a2 1e0c          	ldw	x,(OFST+4,sp)
4296  09a4 72fb08        	addw	x,(OFST+0,sp)
4297  09a7 89            	pushw	x
4298  09a8 1e12          	ldw	x,(OFST+10,sp)
4299  09aa 72fb0c        	addw	x,(OFST+4,sp)
4300  09ad 89            	pushw	x
4301  09ae 1e10          	ldw	x,(OFST+8,sp)
4302  09b0 72f00c        	subw	x,(OFST+4,sp)
4303  09b3 cd078e        	call	_Draw_Line
4305  09b6 5b07          	addw	sp,#7
4306                     ; 591            Draw_Line((xc - b), (yc - a), (xc + b), (yc - a), colour);
4308  09b8 7b12          	ld	a,(OFST+10,sp)
4309  09ba 88            	push	a
4310  09bb 1e0e          	ldw	x,(OFST+6,sp)
4311  09bd 72f008        	subw	x,(OFST+0,sp)
4312  09c0 89            	pushw	x
4313  09c1 1e0c          	ldw	x,(OFST+4,sp)
4314  09c3 72fb08        	addw	x,(OFST+0,sp)
4315  09c6 89            	pushw	x
4316  09c7 1e12          	ldw	x,(OFST+10,sp)
4317  09c9 72f00c        	subw	x,(OFST+4,sp)
4318  09cc 89            	pushw	x
4319  09cd 1e10          	ldw	x,(OFST+8,sp)
4320  09cf 72f00c        	subw	x,(OFST+4,sp)
4321  09d2 cd078e        	call	_Draw_Line
4323  09d5 5b07          	addw	sp,#7
4325  09d7 cc0a62        	jra	L5131
4326  09da               L3131:
4327                     ; 595            Draw_Pixel((xc + a), (yc + b), colour);
4329  09da 7b12          	ld	a,(OFST+10,sp)
4330  09dc 88            	push	a
4331  09dd 7b07          	ld	a,(OFST-1,sp)
4332  09df 1b0f          	add	a,(OFST+7,sp)
4333  09e1 97            	ld	xl,a
4334  09e2 7b09          	ld	a,(OFST+1,sp)
4335  09e4 1b0b          	add	a,(OFST+3,sp)
4336  09e6 95            	ld	xh,a
4337  09e7 cd0718        	call	_Draw_Pixel
4339  09ea 84            	pop	a
4340                     ; 596            Draw_Pixel((xc + b), (yc + a), colour);
4342  09eb 7b12          	ld	a,(OFST+10,sp)
4343  09ed 88            	push	a
4344  09ee 7b09          	ld	a,(OFST+1,sp)
4345  09f0 1b0f          	add	a,(OFST+7,sp)
4346  09f2 97            	ld	xl,a
4347  09f3 7b07          	ld	a,(OFST-1,sp)
4348  09f5 1b0b          	add	a,(OFST+3,sp)
4349  09f7 95            	ld	xh,a
4350  09f8 cd0718        	call	_Draw_Pixel
4352  09fb 84            	pop	a
4353                     ; 597            Draw_Pixel((xc - a), (yc + b), colour);
4355  09fc 7b12          	ld	a,(OFST+10,sp)
4356  09fe 88            	push	a
4357  09ff 7b07          	ld	a,(OFST-1,sp)
4358  0a01 1b0f          	add	a,(OFST+7,sp)
4359  0a03 97            	ld	xl,a
4360  0a04 7b0b          	ld	a,(OFST+3,sp)
4361  0a06 1009          	sub	a,(OFST+1,sp)
4362  0a08 95            	ld	xh,a
4363  0a09 cd0718        	call	_Draw_Pixel
4365  0a0c 84            	pop	a
4366                     ; 598            Draw_Pixel((xc - b), (yc + a), colour);
4368  0a0d 7b12          	ld	a,(OFST+10,sp)
4369  0a0f 88            	push	a
4370  0a10 7b09          	ld	a,(OFST+1,sp)
4371  0a12 1b0f          	add	a,(OFST+7,sp)
4372  0a14 97            	ld	xl,a
4373  0a15 7b0b          	ld	a,(OFST+3,sp)
4374  0a17 1007          	sub	a,(OFST-1,sp)
4375  0a19 95            	ld	xh,a
4376  0a1a cd0718        	call	_Draw_Pixel
4378  0a1d 84            	pop	a
4379                     ; 599            Draw_Pixel((xc + b), (yc - a), colour);
4381  0a1e 7b12          	ld	a,(OFST+10,sp)
4382  0a20 88            	push	a
4383  0a21 7b0f          	ld	a,(OFST+7,sp)
4384  0a23 1009          	sub	a,(OFST+1,sp)
4385  0a25 97            	ld	xl,a
4386  0a26 7b07          	ld	a,(OFST-1,sp)
4387  0a28 1b0b          	add	a,(OFST+3,sp)
4388  0a2a 95            	ld	xh,a
4389  0a2b cd0718        	call	_Draw_Pixel
4391  0a2e 84            	pop	a
4392                     ; 600            Draw_Pixel((xc + a), (yc - b), colour);
4394  0a2f 7b12          	ld	a,(OFST+10,sp)
4395  0a31 88            	push	a
4396  0a32 7b0f          	ld	a,(OFST+7,sp)
4397  0a34 1007          	sub	a,(OFST-1,sp)
4398  0a36 97            	ld	xl,a
4399  0a37 7b09          	ld	a,(OFST+1,sp)
4400  0a39 1b0b          	add	a,(OFST+3,sp)
4401  0a3b 95            	ld	xh,a
4402  0a3c cd0718        	call	_Draw_Pixel
4404  0a3f 84            	pop	a
4405                     ; 601            Draw_Pixel((xc - a), (yc - b), colour);
4407  0a40 7b12          	ld	a,(OFST+10,sp)
4408  0a42 88            	push	a
4409  0a43 7b0f          	ld	a,(OFST+7,sp)
4410  0a45 1007          	sub	a,(OFST-1,sp)
4411  0a47 97            	ld	xl,a
4412  0a48 7b0b          	ld	a,(OFST+3,sp)
4413  0a4a 1009          	sub	a,(OFST+1,sp)
4414  0a4c 95            	ld	xh,a
4415  0a4d cd0718        	call	_Draw_Pixel
4417  0a50 84            	pop	a
4418                     ; 602            Draw_Pixel((xc - b), (yc - a), colour);
4420  0a51 7b12          	ld	a,(OFST+10,sp)
4421  0a53 88            	push	a
4422  0a54 7b0f          	ld	a,(OFST+7,sp)
4423  0a56 1009          	sub	a,(OFST+1,sp)
4424  0a58 97            	ld	xl,a
4425  0a59 7b0b          	ld	a,(OFST+3,sp)
4426  0a5b 1007          	sub	a,(OFST-1,sp)
4427  0a5d 95            	ld	xh,a
4428  0a5e cd0718        	call	_Draw_Pixel
4430  0a61 84            	pop	a
4431  0a62               L5131:
4432                     ; 605         if(P < 0)
4434  0a62 1e03          	ldw	x,(OFST-5,sp)
4435  0a64 2a0c          	jrpl	L7131
4436                     ; 607            P += (3 + (2 * a++));
4438  0a66 1e07          	ldw	x,(OFST-1,sp)
4439  0a68 5c            	incw	x
4440  0a69 1f07          	ldw	(OFST-1,sp),x
4441  0a6b 5a            	decw	x
4443  0a6c 58            	sllw	x
4444  0a6d 1c0003        	addw	x,#3
4446  0a70 2014          	jra	L7031
4447  0a72               L7131:
4448                     ; 611            P += (5 + (2 * ((a++) - (b--))));
4450  0a72 1e05          	ldw	x,(OFST-3,sp)
4452  0a74 1f01          	ldw	(OFST-7,sp),x
4453  0a76 5a            	decw	x
4454  0a77 1f05          	ldw	(OFST-3,sp),x
4456  0a79 1e07          	ldw	x,(OFST-1,sp)
4457  0a7b 5c            	incw	x
4458  0a7c 1f07          	ldw	(OFST-1,sp),x
4459  0a7e 5a            	decw	x
4461  0a7f 72f001        	subw	x,(OFST-7,sp)
4462  0a82 58            	sllw	x
4463  0a83 1c0005        	addw	x,#5
4464  0a86               L7031:
4465  0a86 72fb03        	addw	x,(OFST-5,sp)
4466  0a89 1f03          	ldw	(OFST-5,sp),x
4468                     ; 613     }while(a <= b);
4470  0a8b 1e07          	ldw	x,(OFST-1,sp)
4471  0a8d 1305          	cpw	x,(OFST-3,sp)
4472  0a8f 2c03cc0954    	jrsle	L5031
4473                     ; 614 }
4476  0a94 5b0a          	addw	sp,#10
4477  0a96 81            	ret	
4490                     	xdef	_Draw_Circle
4491                     	xdef	_Draw_Rectangle
4492                     	xdef	_Draw_Line
4493                     	xdef	_Draw_Pixel
4494                     	xdef	_OLED_print_float
4495                     	xdef	_OLED_print_decimal
4496                     	xdef	_OLED_print_int
4497                     	xdef	_OLED_print_chr
4498                     	xdef	_OLED_print_string
4499                     	xdef	_OLED_print_char
4500                     	xdef	_OLED_draw_bitmap
4501                     	xdef	_OLED_cursor
4502                     	xdef	_OLED_clear_buffer
4503                     	xdef	_OLED_clear_screen
4504                     	xdef	_OLED_print_Image
4505                     	xdef	_OLED_fill
4506                     	xdef	_OLED_gotoxy
4507                     	xdef	_OLED_write
4508                     	xdef	_OLED_init
4509                     	xdef	_OLED_HW_setup
4510                     	xdef	_I2C_setup
4511                     	xref	_buffer
4512                     	xref	_delay_ms
4513                     	xref	_I2C_GetFlagStatus
4514                     	xref	_I2C_CheckEvent
4515                     	xref	_I2C_SendData
4516                     	xref	_I2C_Send7bitAddress
4517                     	xref	_I2C_GenerateSTOP
4518                     	xref	_I2C_GenerateSTART
4519                     	xref	_I2C_Cmd
4520                     	xref	_I2C_Init
4521                     	xref	_I2C_DeInit
4522                     	xref	_GPIO_Init
4523                     	xref	_CLK_GetClockFreq
4524                     	switch	.const
4525  024e               L767:
4526  024e 461c4000      	dc.w	17948,16384
4527                     	xref.b	c_lreg
4528                     	xref.b	c_x
4548                     	xref	c_ctof
4549                     	xref	c_fcmp
4550                     	xref	c_itof
4551                     	xref	c_fmul
4552                     	xref	c_fsub
4553                     	xref	c_ltof
4554                     	xref	c_rtol
4555                     	xref	c_ftol
4556                     	xref	c_lmod
4557                     	xref	c_ladc
4558                     	xref	c_ldiv
4559                     	xref	c_lcmp
4560                     	xref	c_ltor
4561                     	xref	c_lgneg
4562                     	xref	c_smodx
4563                     	xref	c_sdivx
4564                     	xref	c_xymvx
4565                     	xref	c_ludv
4566                     	end
