   1                     ; C Compiler for STM8 (COSMIC Software)
   2                     ; Parser V4.11.12 - 20 Jun 2018
   3                     ; Generator (Limited) V4.4.8 - 20 Jun 2018
  14                     .const:	section	.text
  15  0000               L3_font_regular:
  16  0000 00            	dc.b	0
  17  0001 00            	dc.b	0
  18  0002 00            	dc.b	0
  19  0003 00            	dc.b	0
  20  0004 00            	dc.b	0
  21  0005 00            	dc.b	0
  22  0006 00            	dc.b	0
  23  0007 00            	dc.b	0
  24  0008 00            	dc.b	0
  25  0009 2f            	dc.b	47
  26  000a 00            	dc.b	0
  27  000b 00            	dc.b	0
  28  000c 00            	dc.b	0
  29  000d 00            	dc.b	0
  30  000e 07            	dc.b	7
  31  000f 00            	dc.b	0
  32  0010 07            	dc.b	7
  33  0011 00            	dc.b	0
  34  0012 00            	dc.b	0
  35  0013 14            	dc.b	20
  36  0014 7f            	dc.b	127
  37  0015 14            	dc.b	20
  38  0016 7f            	dc.b	127
  39  0017 14            	dc.b	20
  40  0018 00            	dc.b	0
  41  0019 24            	dc.b	36
  42  001a 2a            	dc.b	42
  43  001b 7f            	dc.b	127
  44  001c 2a            	dc.b	42
  45  001d 12            	dc.b	18
  46  001e 00            	dc.b	0
  47  001f 62            	dc.b	98
  48  0020 64            	dc.b	100
  49  0021 08            	dc.b	8
  50  0022 13            	dc.b	19
  51  0023 23            	dc.b	35
  52  0024 00            	dc.b	0
  53  0025 36            	dc.b	54
  54  0026 49            	dc.b	73
  55  0027 55            	dc.b	85
  56  0028 22            	dc.b	34
  57  0029 50            	dc.b	80
  58  002a 00            	dc.b	0
  59  002b 00            	dc.b	0
  60  002c 05            	dc.b	5
  61  002d 03            	dc.b	3
  62  002e 00            	dc.b	0
  63  002f 00            	dc.b	0
  64  0030 00            	dc.b	0
  65  0031 00            	dc.b	0
  66  0032 1c            	dc.b	28
  67  0033 22            	dc.b	34
  68  0034 41            	dc.b	65
  69  0035 00            	dc.b	0
  70  0036 00            	dc.b	0
  71  0037 00            	dc.b	0
  72  0038 41            	dc.b	65
  73  0039 22            	dc.b	34
  74  003a 1c            	dc.b	28
  75  003b 00            	dc.b	0
  76  003c 00            	dc.b	0
  77  003d 14            	dc.b	20
  78  003e 08            	dc.b	8
  79  003f 3e            	dc.b	62
  80  0040 08            	dc.b	8
  81  0041 14            	dc.b	20
  82  0042 00            	dc.b	0
  83  0043 08            	dc.b	8
  84  0044 08            	dc.b	8
  85  0045 3e            	dc.b	62
  86  0046 08            	dc.b	8
  87  0047 08            	dc.b	8
  88  0048 00            	dc.b	0
  89  0049 00            	dc.b	0
  90  004a 00            	dc.b	0
  91  004b a0            	dc.b	160
  92  004c 60            	dc.b	96
  93  004d 00            	dc.b	0
  94  004e 00            	dc.b	0
  95  004f 08            	dc.b	8
  96  0050 08            	dc.b	8
  97  0051 08            	dc.b	8
  98  0052 08            	dc.b	8
  99  0053 08            	dc.b	8
 100  0054 00            	dc.b	0
 101  0055 00            	dc.b	0
 102  0056 60            	dc.b	96
 103  0057 60            	dc.b	96
 104  0058 00            	dc.b	0
 105  0059 00            	dc.b	0
 106  005a 00            	dc.b	0
 107  005b 20            	dc.b	32
 108  005c 10            	dc.b	16
 109  005d 08            	dc.b	8
 110  005e 04            	dc.b	4
 111  005f 02            	dc.b	2
 112  0060 00            	dc.b	0
 113  0061 3e            	dc.b	62
 114  0062 51            	dc.b	81
 115  0063 49            	dc.b	73
 116  0064 45            	dc.b	69
 117  0065 3e            	dc.b	62
 118  0066 00            	dc.b	0
 119  0067 00            	dc.b	0
 120  0068 42            	dc.b	66
 121  0069 7f            	dc.b	127
 122  006a 40            	dc.b	64
 123  006b 00            	dc.b	0
 124  006c 00            	dc.b	0
 125  006d 42            	dc.b	66
 126  006e 61            	dc.b	97
 127  006f 51            	dc.b	81
 128  0070 49            	dc.b	73
 129  0071 46            	dc.b	70
 130  0072 00            	dc.b	0
 131  0073 21            	dc.b	33
 132  0074 41            	dc.b	65
 133  0075 45            	dc.b	69
 134  0076 4b            	dc.b	75
 135  0077 31            	dc.b	49
 136  0078 00            	dc.b	0
 137  0079 18            	dc.b	24
 138  007a 14            	dc.b	20
 139  007b 12            	dc.b	18
 140  007c 7f            	dc.b	127
 141  007d 10            	dc.b	16
 142  007e 00            	dc.b	0
 143  007f 27            	dc.b	39
 144  0080 45            	dc.b	69
 145  0081 45            	dc.b	69
 146  0082 45            	dc.b	69
 147  0083 39            	dc.b	57
 148  0084 00            	dc.b	0
 149  0085 3c            	dc.b	60
 150  0086 4a            	dc.b	74
 151  0087 49            	dc.b	73
 152  0088 49            	dc.b	73
 153  0089 30            	dc.b	48
 154  008a 00            	dc.b	0
 155  008b 01            	dc.b	1
 156  008c 71            	dc.b	113
 157  008d 09            	dc.b	9
 158  008e 05            	dc.b	5
 159  008f 03            	dc.b	3
 160  0090 00            	dc.b	0
 161  0091 36            	dc.b	54
 162  0092 49            	dc.b	73
 163  0093 49            	dc.b	73
 164  0094 49            	dc.b	73
 165  0095 36            	dc.b	54
 166  0096 00            	dc.b	0
 167  0097 06            	dc.b	6
 168  0098 49            	dc.b	73
 169  0099 49            	dc.b	73
 170  009a 29            	dc.b	41
 171  009b 1e            	dc.b	30
 172  009c 00            	dc.b	0
 173  009d 00            	dc.b	0
 174  009e 36            	dc.b	54
 175  009f 36            	dc.b	54
 176  00a0 00            	dc.b	0
 177  00a1 00            	dc.b	0
 178  00a2 00            	dc.b	0
 179  00a3 00            	dc.b	0
 180  00a4 56            	dc.b	86
 181  00a5 36            	dc.b	54
 182  00a6 00            	dc.b	0
 183  00a7 00            	dc.b	0
 184  00a8 00            	dc.b	0
 185  00a9 08            	dc.b	8
 186  00aa 14            	dc.b	20
 187  00ab 22            	dc.b	34
 188  00ac 41            	dc.b	65
 189  00ad 00            	dc.b	0
 190  00ae 00            	dc.b	0
 191  00af 14            	dc.b	20
 192  00b0 14            	dc.b	20
 193  00b1 14            	dc.b	20
 194  00b2 14            	dc.b	20
 195  00b3 14            	dc.b	20
 196  00b4 00            	dc.b	0
 197  00b5 00            	dc.b	0
 198  00b6 41            	dc.b	65
 199  00b7 22            	dc.b	34
 200  00b8 14            	dc.b	20
 201  00b9 08            	dc.b	8
 202  00ba 00            	dc.b	0
 203  00bb 02            	dc.b	2
 204  00bc 01            	dc.b	1
 205  00bd 51            	dc.b	81
 206  00be 09            	dc.b	9
 207  00bf 06            	dc.b	6
 208  00c0 00            	dc.b	0
 209  00c1 32            	dc.b	50
 210  00c2 49            	dc.b	73
 211  00c3 59            	dc.b	89
 212  00c4 51            	dc.b	81
 213  00c5 3e            	dc.b	62
 214  00c6 00            	dc.b	0
 215  00c7 7c            	dc.b	124
 216  00c8 12            	dc.b	18
 217  00c9 11            	dc.b	17
 218  00ca 12            	dc.b	18
 219  00cb 7c            	dc.b	124
 220  00cc 00            	dc.b	0
 221  00cd 7f            	dc.b	127
 222  00ce 49            	dc.b	73
 223  00cf 49            	dc.b	73
 224  00d0 49            	dc.b	73
 225  00d1 36            	dc.b	54
 226  00d2 00            	dc.b	0
 227  00d3 3e            	dc.b	62
 228  00d4 41            	dc.b	65
 229  00d5 41            	dc.b	65
 230  00d6 41            	dc.b	65
 231  00d7 22            	dc.b	34
 232  00d8 00            	dc.b	0
 233  00d9 7f            	dc.b	127
 234  00da 41            	dc.b	65
 235  00db 41            	dc.b	65
 236  00dc 22            	dc.b	34
 237  00dd 1c            	dc.b	28
 238  00de 00            	dc.b	0
 239  00df 7f            	dc.b	127
 240  00e0 49            	dc.b	73
 241  00e1 49            	dc.b	73
 242  00e2 49            	dc.b	73
 243  00e3 41            	dc.b	65
 244  00e4 00            	dc.b	0
 245  00e5 7f            	dc.b	127
 246  00e6 09            	dc.b	9
 247  00e7 09            	dc.b	9
 248  00e8 09            	dc.b	9
 249  00e9 01            	dc.b	1
 250  00ea 00            	dc.b	0
 251  00eb 3e            	dc.b	62
 252  00ec 41            	dc.b	65
 253  00ed 49            	dc.b	73
 254  00ee 49            	dc.b	73
 255  00ef 7a            	dc.b	122
 256  00f0 00            	dc.b	0
 257  00f1 7f            	dc.b	127
 258  00f2 08            	dc.b	8
 259  00f3 08            	dc.b	8
 260  00f4 08            	dc.b	8
 261  00f5 7f            	dc.b	127
 262  00f6 00            	dc.b	0
 263  00f7 00            	dc.b	0
 264  00f8 41            	dc.b	65
 265  00f9 7f            	dc.b	127
 266  00fa 41            	dc.b	65
 267  00fb 00            	dc.b	0
 268  00fc 00            	dc.b	0
 269  00fd 20            	dc.b	32
 270  00fe 40            	dc.b	64
 271  00ff 41            	dc.b	65
 272  0100 3f            	dc.b	63
 273  0101 01            	dc.b	1
 274  0102 00            	dc.b	0
 275  0103 7f            	dc.b	127
 276  0104 08            	dc.b	8
 277  0105 14            	dc.b	20
 278  0106 22            	dc.b	34
 279  0107 41            	dc.b	65
 280  0108 00            	dc.b	0
 281  0109 7f            	dc.b	127
 282  010a 40            	dc.b	64
 283  010b 40            	dc.b	64
 284  010c 40            	dc.b	64
 285  010d 40            	dc.b	64
 286  010e 00            	dc.b	0
 287  010f 7f            	dc.b	127
 288  0110 02            	dc.b	2
 289  0111 0c            	dc.b	12
 290  0112 02            	dc.b	2
 291  0113 7f            	dc.b	127
 292  0114 00            	dc.b	0
 293  0115 7f            	dc.b	127
 294  0116 04            	dc.b	4
 295  0117 08            	dc.b	8
 296  0118 10            	dc.b	16
 297  0119 7f            	dc.b	127
 298  011a 00            	dc.b	0
 299  011b 3e            	dc.b	62
 300  011c 41            	dc.b	65
 301  011d 41            	dc.b	65
 302  011e 41            	dc.b	65
 303  011f 3e            	dc.b	62
 304  0120 00            	dc.b	0
 305  0121 7f            	dc.b	127
 306  0122 09            	dc.b	9
 307  0123 09            	dc.b	9
 308  0124 09            	dc.b	9
 309  0125 06            	dc.b	6
 310  0126 00            	dc.b	0
 311  0127 3e            	dc.b	62
 312  0128 41            	dc.b	65
 313  0129 51            	dc.b	81
 314  012a 21            	dc.b	33
 315  012b 5e            	dc.b	94
 316  012c 00            	dc.b	0
 317  012d 7f            	dc.b	127
 318  012e 09            	dc.b	9
 319  012f 19            	dc.b	25
 320  0130 29            	dc.b	41
 321  0131 46            	dc.b	70
 322  0132 00            	dc.b	0
 323  0133 46            	dc.b	70
 324  0134 49            	dc.b	73
 325  0135 49            	dc.b	73
 326  0136 49            	dc.b	73
 327  0137 31            	dc.b	49
 328  0138 00            	dc.b	0
 329  0139 01            	dc.b	1
 330  013a 01            	dc.b	1
 331  013b 7f            	dc.b	127
 332  013c 01            	dc.b	1
 333  013d 01            	dc.b	1
 334  013e 00            	dc.b	0
 335  013f 3f            	dc.b	63
 336  0140 40            	dc.b	64
 337  0141 40            	dc.b	64
 338  0142 40            	dc.b	64
 339  0143 3f            	dc.b	63
 340  0144 00            	dc.b	0
 341  0145 1f            	dc.b	31
 342  0146 20            	dc.b	32
 343  0147 40            	dc.b	64
 344  0148 20            	dc.b	32
 345  0149 1f            	dc.b	31
 346  014a 00            	dc.b	0
 347  014b 3f            	dc.b	63
 348  014c 40            	dc.b	64
 349  014d 38            	dc.b	56
 350  014e 40            	dc.b	64
 351  014f 3f            	dc.b	63
 352  0150 00            	dc.b	0
 353  0151 63            	dc.b	99
 354  0152 14            	dc.b	20
 355  0153 08            	dc.b	8
 356  0154 14            	dc.b	20
 357  0155 63            	dc.b	99
 358  0156 00            	dc.b	0
 359  0157 07            	dc.b	7
 360  0158 08            	dc.b	8
 361  0159 70            	dc.b	112
 362  015a 08            	dc.b	8
 363  015b 07            	dc.b	7
 364  015c 00            	dc.b	0
 365  015d 61            	dc.b	97
 366  015e 51            	dc.b	81
 367  015f 49            	dc.b	73
 368  0160 45            	dc.b	69
 369  0161 43            	dc.b	67
 370  0162 00            	dc.b	0
 371  0163 00            	dc.b	0
 372  0164 7f            	dc.b	127
 373  0165 41            	dc.b	65
 374  0166 41            	dc.b	65
 375  0167 00            	dc.b	0
 376  0168 00            	dc.b	0
 377  0169 02            	dc.b	2
 378  016a 04            	dc.b	4
 379  016b 08            	dc.b	8
 380  016c 10            	dc.b	16
 381  016d 20            	dc.b	32
 382  016e 00            	dc.b	0
 383  016f 00            	dc.b	0
 384  0170 41            	dc.b	65
 385  0171 41            	dc.b	65
 386  0172 7f            	dc.b	127
 387  0173 00            	dc.b	0
 388  0174 00            	dc.b	0
 389  0175 04            	dc.b	4
 390  0176 02            	dc.b	2
 391  0177 01            	dc.b	1
 392  0178 02            	dc.b	2
 393  0179 04            	dc.b	4
 394  017a 00            	dc.b	0
 395  017b 40            	dc.b	64
 396  017c 40            	dc.b	64
 397  017d 40            	dc.b	64
 398  017e 40            	dc.b	64
 399  017f 40            	dc.b	64
 400  0180 00            	dc.b	0
 401  0181 00            	dc.b	0
 402  0182 01            	dc.b	1
 403  0183 02            	dc.b	2
 404  0184 04            	dc.b	4
 405  0185 00            	dc.b	0
 406  0186 00            	dc.b	0
 407  0187 20            	dc.b	32
 408  0188 54            	dc.b	84
 409  0189 54            	dc.b	84
 410  018a 54            	dc.b	84
 411  018b 78            	dc.b	120
 412  018c 00            	dc.b	0
 413  018d 7f            	dc.b	127
 414  018e 48            	dc.b	72
 415  018f 44            	dc.b	68
 416  0190 44            	dc.b	68
 417  0191 38            	dc.b	56
 418  0192 00            	dc.b	0
 419  0193 38            	dc.b	56
 420  0194 44            	dc.b	68
 421  0195 44            	dc.b	68
 422  0196 44            	dc.b	68
 423  0197 20            	dc.b	32
 424  0198 00            	dc.b	0
 425  0199 38            	dc.b	56
 426  019a 44            	dc.b	68
 427  019b 44            	dc.b	68
 428  019c 48            	dc.b	72
 429  019d 7f            	dc.b	127
 430  019e 00            	dc.b	0
 431  019f 38            	dc.b	56
 432  01a0 54            	dc.b	84
 433  01a1 54            	dc.b	84
 434  01a2 54            	dc.b	84
 435  01a3 18            	dc.b	24
 436  01a4 00            	dc.b	0
 437  01a5 08            	dc.b	8
 438  01a6 7e            	dc.b	126
 439  01a7 09            	dc.b	9
 440  01a8 01            	dc.b	1
 441  01a9 02            	dc.b	2
 442  01aa 00            	dc.b	0
 443  01ab 18            	dc.b	24
 444  01ac a4            	dc.b	164
 445  01ad a4            	dc.b	164
 446  01ae a4            	dc.b	164
 447  01af 7c            	dc.b	124
 448  01b0 00            	dc.b	0
 449  01b1 7f            	dc.b	127
 450  01b2 08            	dc.b	8
 451  01b3 04            	dc.b	4
 452  01b4 04            	dc.b	4
 453  01b5 78            	dc.b	120
 454  01b6 00            	dc.b	0
 455  01b7 00            	dc.b	0
 456  01b8 44            	dc.b	68
 457  01b9 7d            	dc.b	125
 458  01ba 40            	dc.b	64
 459  01bb 00            	dc.b	0
 460  01bc 00            	dc.b	0
 461  01bd 40            	dc.b	64
 462  01be 80            	dc.b	128
 463  01bf 84            	dc.b	132
 464  01c0 7d            	dc.b	125
 465  01c1 00            	dc.b	0
 466  01c2 00            	dc.b	0
 467  01c3 7f            	dc.b	127
 468  01c4 10            	dc.b	16
 469  01c5 28            	dc.b	40
 470  01c6 44            	dc.b	68
 471  01c7 00            	dc.b	0
 472  01c8 00            	dc.b	0
 473  01c9 00            	dc.b	0
 474  01ca 41            	dc.b	65
 475  01cb 7f            	dc.b	127
 476  01cc 40            	dc.b	64
 477  01cd 00            	dc.b	0
 478  01ce 00            	dc.b	0
 479  01cf 7c            	dc.b	124
 480  01d0 04            	dc.b	4
 481  01d1 18            	dc.b	24
 482  01d2 04            	dc.b	4
 483  01d3 78            	dc.b	120
 484  01d4 00            	dc.b	0
 485  01d5 7c            	dc.b	124
 486  01d6 08            	dc.b	8
 487  01d7 04            	dc.b	4
 488  01d8 04            	dc.b	4
 489  01d9 78            	dc.b	120
 490  01da 00            	dc.b	0
 491  01db 38            	dc.b	56
 492  01dc 44            	dc.b	68
 493  01dd 44            	dc.b	68
 494  01de 44            	dc.b	68
 495  01df 38            	dc.b	56
 496  01e0 00            	dc.b	0
 497  01e1 fc            	dc.b	252
 498  01e2 24            	dc.b	36
 499  01e3 24            	dc.b	36
 500  01e4 24            	dc.b	36
 501  01e5 18            	dc.b	24
 502  01e6 00            	dc.b	0
 503  01e7 18            	dc.b	24
 504  01e8 24            	dc.b	36
 505  01e9 24            	dc.b	36
 506  01ea 18            	dc.b	24
 507  01eb fc            	dc.b	252
 508  01ec 00            	dc.b	0
 509  01ed 7c            	dc.b	124
 510  01ee 08            	dc.b	8
 511  01ef 04            	dc.b	4
 512  01f0 04            	dc.b	4
 513  01f1 08            	dc.b	8
 514  01f2 00            	dc.b	0
 515  01f3 48            	dc.b	72
 516  01f4 54            	dc.b	84
 517  01f5 54            	dc.b	84
 518  01f6 54            	dc.b	84
 519  01f7 20            	dc.b	32
 520  01f8 00            	dc.b	0
 521  01f9 04            	dc.b	4
 522  01fa 3f            	dc.b	63
 523  01fb 44            	dc.b	68
 524  01fc 40            	dc.b	64
 525  01fd 20            	dc.b	32
 526  01fe 00            	dc.b	0
 527  01ff 3c            	dc.b	60
 528  0200 40            	dc.b	64
 529  0201 40            	dc.b	64
 530  0202 20            	dc.b	32
 531  0203 7c            	dc.b	124
 532  0204 00            	dc.b	0
 533  0205 1c            	dc.b	28
 534  0206 20            	dc.b	32
 535  0207 40            	dc.b	64
 536  0208 20            	dc.b	32
 537  0209 1c            	dc.b	28
 538  020a 00            	dc.b	0
 539  020b 3c            	dc.b	60
 540  020c 40            	dc.b	64
 541  020d 30            	dc.b	48
 542  020e 40            	dc.b	64
 543  020f 3c            	dc.b	60
 544  0210 00            	dc.b	0
 545  0211 44            	dc.b	68
 546  0212 28            	dc.b	40
 547  0213 10            	dc.b	16
 548  0214 28            	dc.b	40
 549  0215 44            	dc.b	68
 550  0216 00            	dc.b	0
 551  0217 1c            	dc.b	28
 552  0218 a0            	dc.b	160
 553  0219 a0            	dc.b	160
 554  021a a0            	dc.b	160
 555  021b 7c            	dc.b	124
 556  021c 00            	dc.b	0
 557  021d 44            	dc.b	68
 558  021e 64            	dc.b	100
 559  021f 54            	dc.b	84
 560  0220 4c            	dc.b	76
 561  0221 44            	dc.b	68
 562  0222 14            	dc.b	20
 563  0223 14            	dc.b	20
 564  0224 14            	dc.b	20
 565  0225 14            	dc.b	20
 566  0226 14            	dc.b	20
 567  0227 14            	dc.b	20
 628                     ; 5 void OLED_HW_setup(void)
 628                     ; 6 {
 630                     	switch	.text
 631  0000               _OLED_HW_setup:
 635                     ; 7 	GPIO_DeInit(OLED_port_1);
 637  0000 ae500f        	ldw	x,#20495
 638  0003 cd0000        	call	_GPIO_DeInit
 640                     ; 8 	GPIO_Init(OLED_port_1, SCL_pin, GPIO_MODE_OUT_PP_LOW_FAST);
 642  0006 4be0          	push	#224
 643  0008 4b04          	push	#4
 644  000a ae500f        	ldw	x,#20495
 645  000d cd0000        	call	_GPIO_Init
 647  0010 85            	popw	x
 648                     ; 10 	GPIO_DeInit(OLED_port_2);
 650  0011 ae501e        	ldw	x,#20510
 651  0014 cd0000        	call	_GPIO_DeInit
 653                     ; 11 	GPIO_Init(OLED_port_2, ((GPIO_Pin_TypeDef)(SDA_pin | RST_pin | DC_pin | CS_pin)), GPIO_MODE_OUT_PP_LOW_FAST);
 655  0017 4be0          	push	#224
 656  0019 4b3c          	push	#60
 657  001b ae501e        	ldw	x,#20510
 658  001e cd0000        	call	_GPIO_Init
 660  0021 85            	popw	x
 661                     ; 12 }
 664  0022 81            	ret
 693                     ; 15 void OLED_init(void)
 693                     ; 16 {
 694                     	switch	.text
 695  0023               _OLED_init:
 699                     ; 17      OLED_clear_buffer();
 701  0023 cd01cd        	call	_OLED_clear_buffer
 703                     ; 18 	 OLED_HW_setup();
 705  0026 add8          	call	_OLED_HW_setup
 707                     ; 19      delay_ms(100);
 709  0028 ae0064        	ldw	x,#100
 710  002b cd0000        	call	_delay_ms
 712                     ; 20 	 OLED_reset();
 714  002e cd00d9        	call	_OLED_reset
 716                     ; 21      OLED_write((Set_Display_ON_or_OFF_CMD | Display_OFF), CMD);
 718  0031 aeae00        	ldw	x,#44544
 719  0034 cd010a        	call	_OLED_write
 721                     ; 22      OLED_write(Set_Multiplex_Ratio_CMD, CMD);
 723  0037 aea800        	ldw	x,#43008
 724  003a cd010a        	call	_OLED_write
 726                     ; 23      OLED_write(0x3F, CMD);
 728  003d ae3f00        	ldw	x,#16128
 729  0040 cd010a        	call	_OLED_write
 731                     ; 24      OLED_write(Set_Display_Offset_CMD, CMD);
 733  0043 aed300        	ldw	x,#54016
 734  0046 cd010a        	call	_OLED_write
 736                     ; 25      OLED_write(0x00, CMD);
 738  0049 5f            	clrw	x
 739  004a cd010a        	call	_OLED_write
 741                     ; 26      OLED_write(Set_Display_Start_Line_CMD, CMD);
 743  004d ae4000        	ldw	x,#16384
 744  0050 cd010a        	call	_OLED_write
 746                     ; 27      OLED_write((Set_Segment_Remap_CMD | Column_Address_0_Mapped_to_SEG127), CMD);
 748  0053 aea100        	ldw	x,#41216
 749  0056 cd010a        	call	_OLED_write
 751                     ; 28      OLED_write((Set_COM_Output_Scan_Direction_CMD | Scan_from_COM63_to_0), CMD);
 753  0059 aec800        	ldw	x,#51200
 754  005c cd010a        	call	_OLED_write
 756                     ; 29      OLED_write(Set_Common_HW_Config_CMD, CMD);
 758  005f aeda00        	ldw	x,#55808
 759  0062 cd010a        	call	_OLED_write
 761                     ; 30      OLED_write(0x12, CMD);
 763  0065 ae1200        	ldw	x,#4608
 764  0068 cd010a        	call	_OLED_write
 766                     ; 31      OLED_write(Set_Contrast_Control_CMD, CMD);
 768  006b ae8100        	ldw	x,#33024
 769  006e cd010a        	call	_OLED_write
 771                     ; 32      OLED_write(0xFF, CMD);
 773  0071 aeff00        	ldw	x,#65280
 774  0074 cd010a        	call	_OLED_write
 776                     ; 33      OLED_write(Set_Entire_Display_ON_CMD, CMD);
 778  0077 aea400        	ldw	x,#41984
 779  007a cd010a        	call	_OLED_write
 781                     ; 34      OLED_write(Set_Normal_or_Inverse_Display_CMD, CMD);
 783  007d aea600        	ldw	x,#42496
 784  0080 cd010a        	call	_OLED_write
 786                     ; 35      OLED_write(Set_Display_Clock_CMD, CMD);
 788  0083 aed500        	ldw	x,#54528
 789  0086 cd010a        	call	_OLED_write
 791                     ; 36      OLED_write(0x80, CMD);
 793  0089 ae8000        	ldw	x,#32768
 794  008c ad7c          	call	_OLED_write
 796                     ; 37      OLED_write(Set_Pre_charge_Period_CMD, CMD);
 798  008e aed900        	ldw	x,#55552
 799  0091 ad77          	call	_OLED_write
 801                     ; 38      OLED_write(0x25, CMD);
 803  0093 ae2500        	ldw	x,#9472
 804  0096 ad72          	call	_OLED_write
 806                     ; 39      OLED_write(Set_VCOMH_Level_CMD, CMD);
 808  0098 aedb00        	ldw	x,#56064
 809  009b ad6d          	call	_OLED_write
 811                     ; 40      OLED_write(0x20, CMD);
 813  009d ae2000        	ldw	x,#8192
 814  00a0 ad68          	call	_OLED_write
 816                     ; 41      OLED_write(Set_Page_Address_CMD, CMD);
 818  00a2 ae2200        	ldw	x,#8704
 819  00a5 ad63          	call	_OLED_write
 821                     ; 42      OLED_write(0x00, CMD);
 823  00a7 5f            	clrw	x
 824  00a8 ad60          	call	_OLED_write
 826                     ; 43      OLED_write(0x07, CMD);
 828  00aa ae0700        	ldw	x,#1792
 829  00ad ad5b          	call	_OLED_write
 831                     ; 44      OLED_write(Set_Page_Start_Address_CMD , CMD);
 833  00af aeb000        	ldw	x,#45056
 834  00b2 ad56          	call	_OLED_write
 836                     ; 45      OLED_write(Set_Higher_Column_Start_Address_CMD, CMD);
 838  00b4 ae1000        	ldw	x,#4096
 839  00b7 ad51          	call	_OLED_write
 841                     ; 46      OLED_write(Set_Lower_Column_Start_Address_CMD, CMD);
 843  00b9 5f            	clrw	x
 844  00ba ad4e          	call	_OLED_write
 846                     ; 47      OLED_write(Set_Memory_Addressing_Mode_CMD, CMD);
 848  00bc ae2000        	ldw	x,#8192
 849  00bf ad49          	call	_OLED_write
 851                     ; 48      OLED_write(0x02, CMD);
 853  00c1 ae0200        	ldw	x,#512
 854  00c4 ad44          	call	_OLED_write
 856                     ; 49      OLED_write(Set_Charge_Pump_CMD, CMD);
 858  00c6 ae8d00        	ldw	x,#36096
 859  00c9 ad3f          	call	_OLED_write
 861                     ; 50      OLED_write(0x14, CMD);
 863  00cb ae1400        	ldw	x,#5120
 864  00ce ad3a          	call	_OLED_write
 866                     ; 51      OLED_write((Set_Display_ON_or_OFF_CMD | Display_ON), CMD);
 868  00d0 aeaf00        	ldw	x,#44800
 869  00d3 ad35          	call	_OLED_write
 871                     ; 52 	 OLED_clear_screen();
 873  00d5 cd01c9        	call	_OLED_clear_screen
 875                     ; 53 }
 878  00d8 81            	ret
 904                     ; 56 void OLED_reset(void)
 904                     ; 57 {
 905                     	switch	.text
 906  00d9               _OLED_reset:
 910                     ; 58 	delay_ms(40);
 912  00d9 ae0028        	ldw	x,#40
 913  00dc cd0000        	call	_delay_ms
 915                     ; 59     SCL_OUT_HIGH();
 917  00df 4b04          	push	#4
 918  00e1 ae500f        	ldw	x,#20495
 919  00e4 cd0000        	call	_GPIO_WriteHigh
 921  00e7 84            	pop	a
 922                     ; 60     RST_OUT_LOW();
 924  00e8 4b08          	push	#8
 925  00ea ae501e        	ldw	x,#20510
 926  00ed cd0000        	call	_GPIO_WriteLow
 928  00f0 84            	pop	a
 929                     ; 61     delay_ms(60);
 931  00f1 ae003c        	ldw	x,#60
 932  00f4 cd0000        	call	_delay_ms
 934                     ; 62     RST_OUT_HIGH();
 936  00f7 4b08          	push	#8
 937  00f9 ae501e        	ldw	x,#20510
 938  00fc cd0000        	call	_GPIO_WriteHigh
 940  00ff 84            	pop	a
 941                     ; 63     SCL_OUT_LOW();
 943  0100 4b04          	push	#4
 944  0102 ae500f        	ldw	x,#20495
 945  0105 cd0000        	call	_GPIO_WriteLow
 947  0108 84            	pop	a
 948                     ; 64 }
 951  0109 81            	ret
 999                     ; 67 void OLED_write(unsigned char value, unsigned char control_byte)
 999                     ; 68 {
1000                     	switch	.text
1001  010a               _OLED_write:
1003  010a 89            	pushw	x
1004  010b 88            	push	a
1005       00000001      OFST:	set	1
1008                     ; 69 	unsigned char s = 0x08;
1010  010c a608          	ld	a,#8
1011  010e 6b01          	ld	(OFST+0,sp),a
1013                     ; 71     switch(control_byte)
1015  0110 9f            	ld	a,xl
1017                     ; 81             break;
1018  0111 4d            	tnz	a
1019  0112 270e          	jreq	L16
1020  0114 4a            	dec	a
1021  0115 2614          	jrne	L501
1022                     ; 75             DC_OUT_HIGH();
1024  0117 4b10          	push	#16
1025  0119 ae501e        	ldw	x,#20510
1026  011c cd0000        	call	_GPIO_WriteHigh
1028  011f 84            	pop	a
1029                     ; 76             break;
1031  0120 2009          	jra	L501
1032  0122               L16:
1033                     ; 80             DC_OUT_LOW();
1035  0122 4b10          	push	#16
1036  0124 ae501e        	ldw	x,#20510
1037  0127 cd0000        	call	_GPIO_WriteLow
1039  012a 84            	pop	a
1040                     ; 81             break;
1042  012b               L501:
1043                     ; 85 	CS_OUT_LOW();
1045  012b 4b20          	push	#32
1046  012d ae501e        	ldw	x,#20510
1047  0130 cd0000        	call	_GPIO_WriteLow
1049  0133 84            	pop	a
1051  0134 2030          	jra	L111
1052  0136               L701:
1053                     ; 89         if((value & 0x80) != 0x00)
1055  0136 7b02          	ld	a,(OFST+1,sp)
1056  0138 a580          	bcp	a,#128
1057  013a 270b          	jreq	L511
1058                     ; 91             SDA_OUT_HIGH();
1060  013c 4b04          	push	#4
1061  013e ae501e        	ldw	x,#20510
1062  0141 cd0000        	call	_GPIO_WriteHigh
1064  0144 84            	pop	a
1066  0145 2009          	jra	L711
1067  0147               L511:
1068                     ; 95             SDA_OUT_LOW();
1070  0147 4b04          	push	#4
1071  0149 ae501e        	ldw	x,#20510
1072  014c cd0000        	call	_GPIO_WriteLow
1074  014f 84            	pop	a
1075  0150               L711:
1076                     ; 98         SCL_OUT_HIGH();
1078  0150 4b04          	push	#4
1079  0152 ae500f        	ldw	x,#20495
1080  0155 cd0000        	call	_GPIO_WriteHigh
1082  0158 84            	pop	a
1083                     ; 99         SCL_OUT_LOW();
1085  0159 4b04          	push	#4
1086  015b ae500f        	ldw	x,#20495
1087  015e cd0000        	call	_GPIO_WriteLow
1089  0161 84            	pop	a
1090                     ; 101         value <<= 1;
1092  0162 0802          	sll	(OFST+1,sp)
1093                     ; 102         s--;
1095  0164 0a01          	dec	(OFST+0,sp)
1097  0166               L111:
1098                     ; 87     while(s > 0)
1100  0166 0d01          	tnz	(OFST+0,sp)
1101  0168 26cc          	jrne	L701
1102                     ; 105 	CS_OUT_HIGH();
1104  016a 4b20          	push	#32
1105  016c ae501e        	ldw	x,#20510
1106  016f cd0000        	call	_GPIO_WriteHigh
1108  0172 84            	pop	a
1109                     ; 106 }
1112  0173 5b03          	addw	sp,#3
1113  0175 81            	ret
1153                     ; 109 void OLED_gotoxy(unsigned char x_pos, unsigned char y_pos)
1153                     ; 110 {
1154                     	switch	.text
1155  0176               _OLED_gotoxy:
1157  0176 89            	pushw	x
1158       00000000      OFST:	set	0
1161                     ; 111      OLED_write((Set_Page_Start_Address_CMD + y_pos), CMD);
1163  0177 9f            	ld	a,xl
1164  0178 abb0          	add	a,#176
1165  017a 5f            	clrw	x
1166  017b 95            	ld	xh,a
1167  017c ad8c          	call	_OLED_write
1169                     ; 112      OLED_write(((x_pos & 0x0F) | Set_Lower_Column_Start_Address_CMD), CMD);
1171  017e 7b01          	ld	a,(OFST+1,sp)
1172  0180 a40f          	and	a,#15
1173  0182 5f            	clrw	x
1174  0183 95            	ld	xh,a
1175  0184 ad84          	call	_OLED_write
1177                     ; 113      OLED_write((((x_pos & 0xF0) >> 0x04) | Set_Higher_Column_Start_Address_CMD), CMD);
1179  0186 7b01          	ld	a,(OFST+1,sp)
1180  0188 4e            	swap	a
1181  0189 a40f          	and	a,#15
1182  018b aa10          	or	a,#16
1183  018d 5f            	clrw	x
1184  018e 95            	ld	xh,a
1185  018f cd010a        	call	_OLED_write
1187                     ; 114 }
1190  0192 85            	popw	x
1191  0193 81            	ret
1238                     ; 117 void OLED_fill(unsigned char bmp_data)
1238                     ; 118 {
1239                     	switch	.text
1240  0194               _OLED_fill:
1242  0194 88            	push	a
1243  0195 89            	pushw	x
1244       00000002      OFST:	set	2
1247                     ; 119     unsigned char x_pos = 0x00;
1249                     ; 120     unsigned char page = 0x00;
1251                     ; 122     for(page = y_min; page < y_max; page++)
1253  0196 0f01          	clr	(OFST-1,sp)
1255  0198               L751:
1256                     ; 124         OLED_write((Set_Page_Start_Address_CMD + page), CMD);
1258  0198 7b01          	ld	a,(OFST-1,sp)
1259  019a abb0          	add	a,#176
1260  019c 5f            	clrw	x
1261  019d 95            	ld	xh,a
1262  019e cd010a        	call	_OLED_write
1264                     ; 125         OLED_write(Set_Lower_Column_Start_Address_CMD, CMD);
1266  01a1 5f            	clrw	x
1267  01a2 cd010a        	call	_OLED_write
1269                     ; 126         OLED_write(Set_Higher_Column_Start_Address_CMD, CMD);
1271  01a5 ae1000        	ldw	x,#4096
1272  01a8 cd010a        	call	_OLED_write
1274                     ; 128         for(x_pos = x_min; x_pos < x_max; x_pos++)
1276  01ab 0f02          	clr	(OFST+0,sp)
1278  01ad               L561:
1279                     ; 130             OLED_write(bmp_data, DAT);
1281  01ad 7b03          	ld	a,(OFST+1,sp)
1282  01af ae0001        	ldw	x,#1
1283  01b2 95            	ld	xh,a
1284  01b3 cd010a        	call	_OLED_write
1286                     ; 128         for(x_pos = x_min; x_pos < x_max; x_pos++)
1288  01b6 0c02          	inc	(OFST+0,sp)
1292  01b8 7b02          	ld	a,(OFST+0,sp)
1293  01ba a180          	cp	a,#128
1294  01bc 25ef          	jrult	L561
1295                     ; 122     for(page = y_min; page < y_max; page++)
1297  01be 0c01          	inc	(OFST-1,sp)
1301  01c0 7b01          	ld	a,(OFST-1,sp)
1302  01c2 a108          	cp	a,#8
1303  01c4 25d2          	jrult	L751
1304                     ; 133 }
1307  01c6 5b03          	addw	sp,#3
1308  01c8 81            	ret
1332                     ; 136 void OLED_clear_screen(void)
1332                     ; 137 {
1333                     	switch	.text
1334  01c9               _OLED_clear_screen:
1338                     ; 138     OLED_fill(0x00);
1340  01c9 4f            	clr	a
1341  01ca adc8          	call	_OLED_fill
1343                     ; 139 }
1346  01cc 81            	ret
1379                     ; 142 void OLED_clear_buffer(void)
1379                     ; 143 {
1380                     	switch	.text
1381  01cd               _OLED_clear_buffer:
1383  01cd 89            	pushw	x
1384       00000002      OFST:	set	2
1387                     ; 144      unsigned int s = 0x0000;
1389                     ; 146      for(s = 0; s < buffer_size; s++)
1391  01ce 5f            	clrw	x
1392  01cf 1f01          	ldw	(OFST-1,sp),x
1394  01d1               L712:
1395                     ; 148           buffer[s] = 0x00;
1397  01d1 1e01          	ldw	x,(OFST-1,sp)
1398  01d3 724f0000      	clr	(_buffer,x)
1399                     ; 146      for(s = 0; s < buffer_size; s++)
1401  01d7 1e01          	ldw	x,(OFST-1,sp)
1402  01d9 1c0001        	addw	x,#1
1403  01dc 1f01          	ldw	(OFST-1,sp),x
1407  01de 1e01          	ldw	x,(OFST-1,sp)
1408  01e0 a30400        	cpw	x,#1024
1409  01e3 25ec          	jrult	L712
1410                     ; 150 }
1413  01e5 85            	popw	x
1414  01e6 81            	ret
1462                     ; 153 void OLED_cursor(unsigned char x_pos, unsigned char y_pos)
1462                     ; 154 {
1463                     	switch	.text
1464  01e7               _OLED_cursor:
1466  01e7 89            	pushw	x
1467  01e8 88            	push	a
1468       00000001      OFST:	set	1
1471                     ; 155     unsigned char s = 0x00;
1473                     ; 157     if(y_pos != 0x00)
1475  01e9 9f            	ld	a,xl
1476  01ea 4d            	tnz	a
1477  01eb 2734          	jreq	L542
1478                     ; 159         if(x_pos == 1)
1480  01ed 9e            	ld	a,xh
1481  01ee a101          	cp	a,#1
1482  01f0 260a          	jrne	L742
1483                     ; 161             OLED_gotoxy(0x00, (y_pos + 0x02));
1485  01f2 9f            	ld	a,xl
1486  01f3 ab02          	add	a,#2
1487  01f5 5f            	clrw	x
1488  01f6 97            	ld	xl,a
1489  01f7 cd0176        	call	_OLED_gotoxy
1492  01fa 2015          	jra	L152
1493  01fc               L742:
1494                     ; 165             OLED_gotoxy((0x50 + ((x_pos - 0x02) * 0x06)), (y_pos + 0x02));
1496  01fc 7b03          	ld	a,(OFST+2,sp)
1497  01fe ab02          	add	a,#2
1498  0200 97            	ld	xl,a
1499  0201 7b02          	ld	a,(OFST+1,sp)
1500  0203 90ae0006      	ldw	y,#6
1501  0207 9042          	mul	y,a
1502  0209 909f          	ld	a,yl
1503  020b ab44          	add	a,#68
1504  020d 95            	ld	xh,a
1505  020e cd0176        	call	_OLED_gotoxy
1507  0211               L152:
1508                     ; 168         for(s = 0x00; s < 0x06; s++)
1510  0211 0f01          	clr	(OFST+0,sp)
1512  0213               L352:
1513                     ; 170             OLED_write(0xFF, DAT);
1515  0213 aeff01        	ldw	x,#65281
1516  0216 cd010a        	call	_OLED_write
1518                     ; 168         for(s = 0x00; s < 0x06; s++)
1520  0219 0c01          	inc	(OFST+0,sp)
1524  021b 7b01          	ld	a,(OFST+0,sp)
1525  021d a106          	cp	a,#6
1526  021f 25f2          	jrult	L352
1527  0221               L542:
1528                     ; 173 }
1531  0221 5b03          	addw	sp,#3
1532  0223 81            	ret
1618                     ; 176 void OLED_draw_bitmap(unsigned char xb, unsigned char yb, unsigned char xe, unsigned char ye, unsigned char *bmp_img)
1618                     ; 177 {
1619                     	switch	.text
1620  0224               _OLED_draw_bitmap:
1622  0224 89            	pushw	x
1623  0225 5204          	subw	sp,#4
1624       00000004      OFST:	set	4
1627                     ; 178     unsigned int s = 0x0000;
1629  0227 5f            	clrw	x
1630  0228 1f01          	ldw	(OFST-3,sp),x
1632                     ; 179     unsigned char x_pos = 0x00;
1634                     ; 180     unsigned char y_pos = 0x00;
1636                     ; 182     for(y_pos = yb; y_pos <= ye; y_pos++)
1638  022a 7b06          	ld	a,(OFST+2,sp)
1639  022c 6b03          	ld	(OFST-1,sp),a
1642  022e 202e          	jra	L123
1643  0230               L513:
1644                     ; 184         OLED_gotoxy(xb, y_pos);
1646  0230 7b03          	ld	a,(OFST-1,sp)
1647  0232 97            	ld	xl,a
1648  0233 7b05          	ld	a,(OFST+1,sp)
1649  0235 95            	ld	xh,a
1650  0236 cd0176        	call	_OLED_gotoxy
1652                     ; 185         for(x_pos = xb; x_pos < xe; x_pos++)
1654  0239 7b05          	ld	a,(OFST+1,sp)
1655  023b 6b04          	ld	(OFST+0,sp),a
1658  023d 2017          	jra	L133
1659  023f               L523:
1660                     ; 187             OLED_write(bmp_img[s++], DAT);
1662  023f 1e01          	ldw	x,(OFST-3,sp)
1663  0241 1c0001        	addw	x,#1
1664  0244 1f01          	ldw	(OFST-3,sp),x
1665  0246 1d0001        	subw	x,#1
1667  0249 72fb0b        	addw	x,(OFST+7,sp)
1668  024c f6            	ld	a,(x)
1669  024d ae0001        	ldw	x,#1
1670  0250 95            	ld	xh,a
1671  0251 cd010a        	call	_OLED_write
1673                     ; 185         for(x_pos = xb; x_pos < xe; x_pos++)
1675  0254 0c04          	inc	(OFST+0,sp)
1677  0256               L133:
1680  0256 7b04          	ld	a,(OFST+0,sp)
1681  0258 1109          	cp	a,(OFST+5,sp)
1682  025a 25e3          	jrult	L523
1683                     ; 182     for(y_pos = yb; y_pos <= ye; y_pos++)
1685  025c 0c03          	inc	(OFST-1,sp)
1687  025e               L123:
1690  025e 7b03          	ld	a,(OFST-1,sp)
1691  0260 110a          	cp	a,(OFST+6,sp)
1692  0262 23cc          	jrule	L513
1693                     ; 190 }
1696  0264 5b06          	addw	sp,#6
1697  0266 81            	ret
1760                     ; 193 void OLED_print_char(unsigned char x_pos, unsigned char y_pos, unsigned char ch)
1760                     ; 194 {
1761                     	switch	.text
1762  0267               _OLED_print_char:
1764  0267 89            	pushw	x
1765  0268 89            	pushw	x
1766       00000002      OFST:	set	2
1769                     ; 195   unsigned char s = 0x00;
1771                     ; 196   unsigned char chr = 0x00;
1773                     ; 198   chr = (ch - 0x20);
1775  0269 7b07          	ld	a,(OFST+5,sp)
1776  026b a020          	sub	a,#32
1777  026d 6b01          	ld	(OFST-1,sp),a
1779                     ; 200   if(x_pos > (x_max - 0x06))
1781  026f 9e            	ld	a,xh
1782  0270 a17b          	cp	a,#123
1783  0272 2504          	jrult	L163
1784                     ; 202     x_pos = 0x00;
1786  0274 0f03          	clr	(OFST+1,sp)
1787                     ; 203     y_pos++;
1789  0276 0c04          	inc	(OFST+2,sp)
1790  0278               L163:
1791                     ; 205   OLED_gotoxy(x_pos, y_pos);
1793  0278 7b04          	ld	a,(OFST+2,sp)
1794  027a 97            	ld	xl,a
1795  027b 7b03          	ld	a,(OFST+1,sp)
1796  027d 95            	ld	xh,a
1797  027e cd0176        	call	_OLED_gotoxy
1799                     ; 207   for(s = 0x00; s < 0x06; s++)
1801  0281 0f02          	clr	(OFST+0,sp)
1803  0283               L363:
1804                     ; 209     OLED_write(font_regular[chr][s], DAT);
1806  0283 ae0006        	ldw	x,#6
1807  0286 7b01          	ld	a,(OFST-1,sp)
1808  0288 cd0000        	call	c_bmulx
1810  028b 01            	rrwa	x,a
1811  028c 1b02          	add	a,(OFST+0,sp)
1812  028e 2401          	jrnc	L23
1813  0290 5c            	incw	x
1814  0291               L23:
1815  0291 02            	rlwa	x,a
1816  0292 d60000        	ld	a,(L3_font_regular,x)
1817  0295 ae0001        	ldw	x,#1
1818  0298 95            	ld	xh,a
1819  0299 cd010a        	call	_OLED_write
1821                     ; 207   for(s = 0x00; s < 0x06; s++)
1823  029c 0c02          	inc	(OFST+0,sp)
1827  029e 7b02          	ld	a,(OFST+0,sp)
1828  02a0 a106          	cp	a,#6
1829  02a2 25df          	jrult	L363
1830                     ; 211 }
1833  02a4 5b04          	addw	sp,#4
1834  02a6 81            	ret
1884                     ; 214 void OLED_print_string(unsigned char x_pos, unsigned char y_pos, char *ch)
1884                     ; 215 {
1885                     	switch	.text
1886  02a7               _OLED_print_string:
1888  02a7 89            	pushw	x
1889       00000000      OFST:	set	0
1892  02a8               L314:
1893                     ; 218     OLED_print_char(x_pos, y_pos, *ch++);
1895  02a8 1e05          	ldw	x,(OFST+5,sp)
1896  02aa 1c0001        	addw	x,#1
1897  02ad 1f05          	ldw	(OFST+5,sp),x
1898  02af 1d0001        	subw	x,#1
1899  02b2 f6            	ld	a,(x)
1900  02b3 88            	push	a
1901  02b4 7b03          	ld	a,(OFST+3,sp)
1902  02b6 97            	ld	xl,a
1903  02b7 7b02          	ld	a,(OFST+2,sp)
1904  02b9 95            	ld	xh,a
1905  02ba adab          	call	_OLED_print_char
1907  02bc 84            	pop	a
1908                     ; 219     x_pos += 0x06;
1910  02bd 7b01          	ld	a,(OFST+1,sp)
1911  02bf ab06          	add	a,#6
1912  02c1 6b01          	ld	(OFST+1,sp),a
1913                     ; 220   }while((*ch >= 0x20) && (*ch <= 0x7F) && (*ch != '\n'));
1915  02c3 1e05          	ldw	x,(OFST+5,sp)
1916  02c5 f6            	ld	a,(x)
1917  02c6 a120          	cp	a,#32
1918  02c8 250e          	jrult	L124
1920  02ca 1e05          	ldw	x,(OFST+5,sp)
1921  02cc f6            	ld	a,(x)
1922  02cd a180          	cp	a,#128
1923  02cf 2407          	jruge	L124
1925  02d1 1e05          	ldw	x,(OFST+5,sp)
1926  02d3 f6            	ld	a,(x)
1927  02d4 a10a          	cp	a,#10
1928  02d6 26d0          	jrne	L314
1929  02d8               L124:
1930                     ; 221 }
1933  02d8 85            	popw	x
1934  02d9 81            	ret
1937                     	switch	.const
1938  0228               L524_ch:
1939  0228 20            	dc.b	32
1940  0229 20            	dc.b	32
1941  022a 20            	dc.b	32
1942  022b 20            	dc.b	32
1943  022c 0a            	dc.b	10
1998                     ; 224 void OLED_print_chr(unsigned char x_pos, unsigned char y_pos, signed int value)
1998                     ; 225 {
1999                     	switch	.text
2000  02da               _OLED_print_chr:
2002  02da 89            	pushw	x
2003  02db 5205          	subw	sp,#5
2004       00000005      OFST:	set	5
2007                     ; 226    char ch[5] = {0x20, 0x20, 0x20, 0x20, '\n'};
2009  02dd 96            	ldw	x,sp
2010  02de 1c0001        	addw	x,#OFST-4
2011  02e1 90ae0228      	ldw	y,#L524_ch
2012  02e5 a605          	ld	a,#5
2013  02e7 cd0000        	call	c_xymvx
2015                     ; 228   if(value < 0)
2017  02ea 9c            	rvf
2018  02eb 1e0a          	ldw	x,(OFST+5,sp)
2019  02ed 2e0b          	jrsge	L354
2020                     ; 230     ch[0] = 0x2D;
2022  02ef a62d          	ld	a,#45
2023  02f1 6b01          	ld	(OFST-4,sp),a
2025                     ; 231     value = -value;
2027  02f3 1e0a          	ldw	x,(OFST+5,sp)
2028  02f5 50            	negw	x
2029  02f6 1f0a          	ldw	(OFST+5,sp),x
2031  02f8 2004          	jra	L554
2032  02fa               L354:
2033                     ; 235     ch[0] = 0x20;
2035  02fa a620          	ld	a,#32
2036  02fc 6b01          	ld	(OFST-4,sp),a
2038  02fe               L554:
2039                     ; 238   if((value > 99) && (value <= 999))
2041  02fe 9c            	rvf
2042  02ff 1e0a          	ldw	x,(OFST+5,sp)
2043  0301 a30064        	cpw	x,#100
2044  0304 2f39          	jrslt	L754
2046  0306 9c            	rvf
2047  0307 1e0a          	ldw	x,(OFST+5,sp)
2048  0309 a303e8        	cpw	x,#1000
2049  030c 2e31          	jrsge	L754
2050                     ; 240      ch[1] = ((value / 100) + 0x30);
2052  030e 1e0a          	ldw	x,(OFST+5,sp)
2053  0310 a664          	ld	a,#100
2054  0312 cd0000        	call	c_sdivx
2056  0315 1c0030        	addw	x,#48
2057  0318 01            	rrwa	x,a
2058  0319 6b02          	ld	(OFST-3,sp),a
2059  031b 02            	rlwa	x,a
2061                     ; 241      ch[2] = (((value % 100) / 10) + 0x30);
2063  031c 1e0a          	ldw	x,(OFST+5,sp)
2064  031e a664          	ld	a,#100
2065  0320 cd0000        	call	c_smodx
2067  0323 a60a          	ld	a,#10
2068  0325 cd0000        	call	c_sdivx
2070  0328 1c0030        	addw	x,#48
2071  032b 01            	rrwa	x,a
2072  032c 6b03          	ld	(OFST-2,sp),a
2073  032e 02            	rlwa	x,a
2075                     ; 242      ch[3] = ((value % 10) + 0x30);
2077  032f 1e0a          	ldw	x,(OFST+5,sp)
2078  0331 a60a          	ld	a,#10
2079  0333 cd0000        	call	c_smodx
2081  0336 1c0030        	addw	x,#48
2082  0339 01            	rrwa	x,a
2083  033a 6b04          	ld	(OFST-1,sp),a
2084  033c 02            	rlwa	x,a
2087  033d 2055          	jra	L164
2088  033f               L754:
2089                     ; 244   else if((value > 9) && (value <= 99))
2091  033f 9c            	rvf
2092  0340 1e0a          	ldw	x,(OFST+5,sp)
2093  0342 a3000a        	cpw	x,#10
2094  0345 2f2a          	jrslt	L364
2096  0347 9c            	rvf
2097  0348 1e0a          	ldw	x,(OFST+5,sp)
2098  034a a30064        	cpw	x,#100
2099  034d 2e22          	jrsge	L364
2100                     ; 246      ch[1] = ((value / 10) + 0x30);
2102  034f 1e0a          	ldw	x,(OFST+5,sp)
2103  0351 a60a          	ld	a,#10
2104  0353 cd0000        	call	c_sdivx
2106  0356 1c0030        	addw	x,#48
2107  0359 01            	rrwa	x,a
2108  035a 6b02          	ld	(OFST-3,sp),a
2109  035c 02            	rlwa	x,a
2111                     ; 247      ch[2] = ((value % 10) + 0x30);
2113  035d 1e0a          	ldw	x,(OFST+5,sp)
2114  035f a60a          	ld	a,#10
2115  0361 cd0000        	call	c_smodx
2117  0364 1c0030        	addw	x,#48
2118  0367 01            	rrwa	x,a
2119  0368 6b03          	ld	(OFST-2,sp),a
2120  036a 02            	rlwa	x,a
2122                     ; 248      ch[3] = 0x20;
2124  036b a620          	ld	a,#32
2125  036d 6b04          	ld	(OFST-1,sp),a
2128  036f 2023          	jra	L164
2129  0371               L364:
2130                     ; 250   else if((value >= 0) && (value <= 9))
2132  0371 9c            	rvf
2133  0372 1e0a          	ldw	x,(OFST+5,sp)
2134  0374 2f1e          	jrslt	L164
2136  0376 9c            	rvf
2137  0377 1e0a          	ldw	x,(OFST+5,sp)
2138  0379 a3000a        	cpw	x,#10
2139  037c 2e16          	jrsge	L164
2140                     ; 252      ch[1] = ((value % 10) + 0x30);
2142  037e 1e0a          	ldw	x,(OFST+5,sp)
2143  0380 a60a          	ld	a,#10
2144  0382 cd0000        	call	c_smodx
2146  0385 1c0030        	addw	x,#48
2147  0388 01            	rrwa	x,a
2148  0389 6b02          	ld	(OFST-3,sp),a
2149  038b 02            	rlwa	x,a
2151                     ; 253      ch[2] = 0x20;
2153  038c a620          	ld	a,#32
2154  038e 6b03          	ld	(OFST-2,sp),a
2156                     ; 254      ch[3] = 0x20;
2158  0390 a620          	ld	a,#32
2159  0392 6b04          	ld	(OFST-1,sp),a
2161  0394               L164:
2162                     ; 257   OLED_print_string(x_pos, y_pos, ch);
2164  0394 96            	ldw	x,sp
2165  0395 1c0001        	addw	x,#OFST-4
2166  0398 89            	pushw	x
2167  0399 7b09          	ld	a,(OFST+4,sp)
2168  039b 97            	ld	xl,a
2169  039c 7b08          	ld	a,(OFST+3,sp)
2170  039e 95            	ld	xh,a
2171  039f cd02a7        	call	_OLED_print_string
2173  03a2 85            	popw	x
2174                     ; 258 }
2177  03a3 5b07          	addw	sp,#7
2178  03a5 81            	ret
2181                     	switch	.const
2182  022d               L174_ch:
2183  022d 20            	dc.b	32
2184  022e 20            	dc.b	32
2185  022f 20            	dc.b	32
2186  0230 20            	dc.b	32
2187  0231 20            	dc.b	32
2188  0232 20            	dc.b	32
2189  0233 0a            	dc.b	10
2244                     	switch	.const
2245  0234               L24:
2246  0234 00002710      	dc.l	10000
2247  0238               L44:
2248  0238 000003e8      	dc.l	1000
2249  023c               L64:
2250  023c 00000064      	dc.l	100
2251  0240               L05:
2252  0240 0000000a      	dc.l	10
2253                     ; 261 void OLED_print_int(unsigned char x_pos, unsigned char y_pos, signed long value)
2253                     ; 262 {
2254                     	switch	.text
2255  03a6               _OLED_print_int:
2257  03a6 89            	pushw	x
2258  03a7 5207          	subw	sp,#7
2259       00000007      OFST:	set	7
2262                     ; 263    char ch[7] = {0x20, 0x20, 0x20, 0x20, 0x20, 0x20, '\n'};
2264  03a9 96            	ldw	x,sp
2265  03aa 1c0001        	addw	x,#OFST-6
2266  03ad 90ae022d      	ldw	y,#L174_ch
2267  03b1 a607          	ld	a,#7
2268  03b3 cd0000        	call	c_xymvx
2270                     ; 265   if(value < 0)
2272  03b6 9c            	rvf
2273  03b7 9c            	rvf
2274  03b8 0d0c          	tnz	(OFST+5,sp)
2275  03ba 2e0d          	jrsge	L715
2276                     ; 267     ch[0] = 0x2D;
2278  03bc a62d          	ld	a,#45
2279  03be 6b01          	ld	(OFST-6,sp),a
2281                     ; 268     value = -value;
2283  03c0 96            	ldw	x,sp
2284  03c1 1c000c        	addw	x,#OFST+5
2285  03c4 cd0000        	call	c_lgneg
2288  03c7 2004          	jra	L125
2289  03c9               L715:
2290                     ; 272     ch[0] = 0x20;
2292  03c9 a620          	ld	a,#32
2293  03cb 6b01          	ld	(OFST-6,sp),a
2295  03cd               L125:
2296                     ; 275   if(value > 9999)
2298  03cd 9c            	rvf
2299  03ce 96            	ldw	x,sp
2300  03cf 1c000c        	addw	x,#OFST+5
2301  03d2 cd0000        	call	c_ltor
2303  03d5 ae0234        	ldw	x,#L24
2304  03d8 cd0000        	call	c_lcmp
2306  03db 2e03          	jrsge	L25
2307  03dd cc0464        	jp	L325
2308  03e0               L25:
2309                     ; 277     ch[1] = ((value / 10000) + 0x30);  
2311  03e0 96            	ldw	x,sp
2312  03e1 1c000c        	addw	x,#OFST+5
2313  03e4 cd0000        	call	c_ltor
2315  03e7 ae0234        	ldw	x,#L24
2316  03ea cd0000        	call	c_ldiv
2318  03ed a630          	ld	a,#48
2319  03ef cd0000        	call	c_ladc
2321  03f2 b603          	ld	a,c_lreg+3
2322  03f4 6b02          	ld	(OFST-5,sp),a
2324                     ; 278     ch[2] = (((value % 10000) / 1000) + 0x30);  
2326  03f6 96            	ldw	x,sp
2327  03f7 1c000c        	addw	x,#OFST+5
2328  03fa cd0000        	call	c_ltor
2330  03fd ae0234        	ldw	x,#L24
2331  0400 cd0000        	call	c_lmod
2333  0403 ae0238        	ldw	x,#L44
2334  0406 cd0000        	call	c_ldiv
2336  0409 a630          	ld	a,#48
2337  040b cd0000        	call	c_ladc
2339  040e b603          	ld	a,c_lreg+3
2340  0410 6b03          	ld	(OFST-4,sp),a
2342                     ; 279     ch[3] = (((value % 1000) / 100) + 0x30);  
2344  0412 96            	ldw	x,sp
2345  0413 1c000c        	addw	x,#OFST+5
2346  0416 cd0000        	call	c_ltor
2348  0419 ae0238        	ldw	x,#L44
2349  041c cd0000        	call	c_lmod
2351  041f ae023c        	ldw	x,#L64
2352  0422 cd0000        	call	c_ldiv
2354  0425 a630          	ld	a,#48
2355  0427 cd0000        	call	c_ladc
2357  042a b603          	ld	a,c_lreg+3
2358  042c 6b04          	ld	(OFST-3,sp),a
2360                     ; 280     ch[4] = (((value % 100) / 10) + 0x30);  
2362  042e 96            	ldw	x,sp
2363  042f 1c000c        	addw	x,#OFST+5
2364  0432 cd0000        	call	c_ltor
2366  0435 ae023c        	ldw	x,#L64
2367  0438 cd0000        	call	c_lmod
2369  043b ae0240        	ldw	x,#L05
2370  043e cd0000        	call	c_ldiv
2372  0441 a630          	ld	a,#48
2373  0443 cd0000        	call	c_ladc
2375  0446 b603          	ld	a,c_lreg+3
2376  0448 6b05          	ld	(OFST-2,sp),a
2378                     ; 281     ch[5] = ((value % 10) + 0x30);
2380  044a 96            	ldw	x,sp
2381  044b 1c000c        	addw	x,#OFST+5
2382  044e cd0000        	call	c_ltor
2384  0451 ae0240        	ldw	x,#L05
2385  0454 cd0000        	call	c_lmod
2387  0457 a630          	ld	a,#48
2388  0459 cd0000        	call	c_ladc
2390  045c b603          	ld	a,c_lreg+3
2391  045e 6b06          	ld	(OFST-1,sp),a
2394  0460 ace605e6      	jpf	L525
2395  0464               L325:
2396                     ; 284   else if((value > 999) && (value <= 9999))
2398  0464 9c            	rvf
2399  0465 96            	ldw	x,sp
2400  0466 1c000c        	addw	x,#OFST+5
2401  0469 cd0000        	call	c_ltor
2403  046c ae0238        	ldw	x,#L44
2404  046f cd0000        	call	c_lcmp
2406  0472 2e02          	jrsge	L45
2407  0474 207c          	jp	L725
2408  0476               L45:
2410  0476 9c            	rvf
2411  0477 96            	ldw	x,sp
2412  0478 1c000c        	addw	x,#OFST+5
2413  047b cd0000        	call	c_ltor
2415  047e ae0234        	ldw	x,#L24
2416  0481 cd0000        	call	c_lcmp
2418  0484 2e6c          	jrsge	L725
2419                     ; 286     ch[1] = ((value / 1000) + 0x30);  
2421  0486 96            	ldw	x,sp
2422  0487 1c000c        	addw	x,#OFST+5
2423  048a cd0000        	call	c_ltor
2425  048d ae0238        	ldw	x,#L44
2426  0490 cd0000        	call	c_ldiv
2428  0493 a630          	ld	a,#48
2429  0495 cd0000        	call	c_ladc
2431  0498 b603          	ld	a,c_lreg+3
2432  049a 6b02          	ld	(OFST-5,sp),a
2434                     ; 287     ch[2] = (((value % 1000) / 100) + 0x30);  
2436  049c 96            	ldw	x,sp
2437  049d 1c000c        	addw	x,#OFST+5
2438  04a0 cd0000        	call	c_ltor
2440  04a3 ae0238        	ldw	x,#L44
2441  04a6 cd0000        	call	c_lmod
2443  04a9 ae023c        	ldw	x,#L64
2444  04ac cd0000        	call	c_ldiv
2446  04af a630          	ld	a,#48
2447  04b1 cd0000        	call	c_ladc
2449  04b4 b603          	ld	a,c_lreg+3
2450  04b6 6b03          	ld	(OFST-4,sp),a
2452                     ; 288     ch[3] = (((value % 100) / 10) + 0x30);  
2454  04b8 96            	ldw	x,sp
2455  04b9 1c000c        	addw	x,#OFST+5
2456  04bc cd0000        	call	c_ltor
2458  04bf ae023c        	ldw	x,#L64
2459  04c2 cd0000        	call	c_lmod
2461  04c5 ae0240        	ldw	x,#L05
2462  04c8 cd0000        	call	c_ldiv
2464  04cb a630          	ld	a,#48
2465  04cd cd0000        	call	c_ladc
2467  04d0 b603          	ld	a,c_lreg+3
2468  04d2 6b04          	ld	(OFST-3,sp),a
2470                     ; 289     ch[4] = ((value % 10) + 0x30);
2472  04d4 96            	ldw	x,sp
2473  04d5 1c000c        	addw	x,#OFST+5
2474  04d8 cd0000        	call	c_ltor
2476  04db ae0240        	ldw	x,#L05
2477  04de cd0000        	call	c_lmod
2479  04e1 a630          	ld	a,#48
2480  04e3 cd0000        	call	c_ladc
2482  04e6 b603          	ld	a,c_lreg+3
2483  04e8 6b05          	ld	(OFST-2,sp),a
2485                     ; 290     ch[5] = 0x20;
2487  04ea a620          	ld	a,#32
2488  04ec 6b06          	ld	(OFST-1,sp),a
2491  04ee ace605e6      	jpf	L525
2492  04f2               L725:
2493                     ; 292   else if((value > 99) && (value <= 999))
2495  04f2 9c            	rvf
2496  04f3 96            	ldw	x,sp
2497  04f4 1c000c        	addw	x,#OFST+5
2498  04f7 cd0000        	call	c_ltor
2500  04fa ae023c        	ldw	x,#L64
2501  04fd cd0000        	call	c_lcmp
2503  0500 2f64          	jrslt	L335
2505  0502 9c            	rvf
2506  0503 96            	ldw	x,sp
2507  0504 1c000c        	addw	x,#OFST+5
2508  0507 cd0000        	call	c_ltor
2510  050a ae0238        	ldw	x,#L44
2511  050d cd0000        	call	c_lcmp
2513  0510 2e54          	jrsge	L335
2514                     ; 294     ch[1] = ((value / 100) + 0x30);  
2516  0512 96            	ldw	x,sp
2517  0513 1c000c        	addw	x,#OFST+5
2518  0516 cd0000        	call	c_ltor
2520  0519 ae023c        	ldw	x,#L64
2521  051c cd0000        	call	c_ldiv
2523  051f a630          	ld	a,#48
2524  0521 cd0000        	call	c_ladc
2526  0524 b603          	ld	a,c_lreg+3
2527  0526 6b02          	ld	(OFST-5,sp),a
2529                     ; 295     ch[2] = (((value % 100) / 10) + 0x30);  
2531  0528 96            	ldw	x,sp
2532  0529 1c000c        	addw	x,#OFST+5
2533  052c cd0000        	call	c_ltor
2535  052f ae023c        	ldw	x,#L64
2536  0532 cd0000        	call	c_lmod
2538  0535 ae0240        	ldw	x,#L05
2539  0538 cd0000        	call	c_ldiv
2541  053b a630          	ld	a,#48
2542  053d cd0000        	call	c_ladc
2544  0540 b603          	ld	a,c_lreg+3
2545  0542 6b03          	ld	(OFST-4,sp),a
2547                     ; 296     ch[3] = ((value % 10) + 0x30);
2549  0544 96            	ldw	x,sp
2550  0545 1c000c        	addw	x,#OFST+5
2551  0548 cd0000        	call	c_ltor
2553  054b ae0240        	ldw	x,#L05
2554  054e cd0000        	call	c_lmod
2556  0551 a630          	ld	a,#48
2557  0553 cd0000        	call	c_ladc
2559  0556 b603          	ld	a,c_lreg+3
2560  0558 6b04          	ld	(OFST-3,sp),a
2562                     ; 297     ch[4] = 0x20;
2564  055a a620          	ld	a,#32
2565  055c 6b05          	ld	(OFST-2,sp),a
2567                     ; 298     ch[5] = 0x20;
2569  055e a620          	ld	a,#32
2570  0560 6b06          	ld	(OFST-1,sp),a
2573  0562 ace605e6      	jpf	L525
2574  0566               L335:
2575                     ; 300   else if((value > 9) && (value <= 99))
2577  0566 9c            	rvf
2578  0567 96            	ldw	x,sp
2579  0568 1c000c        	addw	x,#OFST+5
2580  056b cd0000        	call	c_ltor
2582  056e ae0240        	ldw	x,#L05
2583  0571 cd0000        	call	c_lcmp
2585  0574 2f4a          	jrslt	L735
2587  0576 9c            	rvf
2588  0577 96            	ldw	x,sp
2589  0578 1c000c        	addw	x,#OFST+5
2590  057b cd0000        	call	c_ltor
2592  057e ae023c        	ldw	x,#L64
2593  0581 cd0000        	call	c_lcmp
2595  0584 2e3a          	jrsge	L735
2596                     ; 302     ch[1] = ((value / 10) + 0x30);  
2598  0586 96            	ldw	x,sp
2599  0587 1c000c        	addw	x,#OFST+5
2600  058a cd0000        	call	c_ltor
2602  058d ae0240        	ldw	x,#L05
2603  0590 cd0000        	call	c_ldiv
2605  0593 a630          	ld	a,#48
2606  0595 cd0000        	call	c_ladc
2608  0598 b603          	ld	a,c_lreg+3
2609  059a 6b02          	ld	(OFST-5,sp),a
2611                     ; 303     ch[2] = ((value % 10) + 0x30);
2613  059c 96            	ldw	x,sp
2614  059d 1c000c        	addw	x,#OFST+5
2615  05a0 cd0000        	call	c_ltor
2617  05a3 ae0240        	ldw	x,#L05
2618  05a6 cd0000        	call	c_lmod
2620  05a9 a630          	ld	a,#48
2621  05ab cd0000        	call	c_ladc
2623  05ae b603          	ld	a,c_lreg+3
2624  05b0 6b03          	ld	(OFST-4,sp),a
2626                     ; 304     ch[3] = 0x20;
2628  05b2 a620          	ld	a,#32
2629  05b4 6b04          	ld	(OFST-3,sp),a
2631                     ; 305     ch[4] = 0x20;
2633  05b6 a620          	ld	a,#32
2634  05b8 6b05          	ld	(OFST-2,sp),a
2636                     ; 306     ch[5] = 0x20;
2638  05ba a620          	ld	a,#32
2639  05bc 6b06          	ld	(OFST-1,sp),a
2642  05be 2026          	jra	L525
2643  05c0               L735:
2644                     ; 310     ch[1] = ((value % 10) + 0x30);
2646  05c0 96            	ldw	x,sp
2647  05c1 1c000c        	addw	x,#OFST+5
2648  05c4 cd0000        	call	c_ltor
2650  05c7 ae0240        	ldw	x,#L05
2651  05ca cd0000        	call	c_lmod
2653  05cd a630          	ld	a,#48
2654  05cf cd0000        	call	c_ladc
2656  05d2 b603          	ld	a,c_lreg+3
2657  05d4 6b02          	ld	(OFST-5,sp),a
2659                     ; 311     ch[2] = 0x20;
2661  05d6 a620          	ld	a,#32
2662  05d8 6b03          	ld	(OFST-4,sp),a
2664                     ; 312     ch[3] = 0x20;
2666  05da a620          	ld	a,#32
2667  05dc 6b04          	ld	(OFST-3,sp),a
2669                     ; 313     ch[4] = 0x20;
2671  05de a620          	ld	a,#32
2672  05e0 6b05          	ld	(OFST-2,sp),a
2674                     ; 314     ch[5] = 0x20;
2676  05e2 a620          	ld	a,#32
2677  05e4 6b06          	ld	(OFST-1,sp),a
2679  05e6               L525:
2680                     ; 317   OLED_print_string(x_pos, y_pos, ch);
2682  05e6 96            	ldw	x,sp
2683  05e7 1c0001        	addw	x,#OFST-6
2684  05ea 89            	pushw	x
2685  05eb 7b0b          	ld	a,(OFST+4,sp)
2686  05ed 97            	ld	xl,a
2687  05ee 7b0a          	ld	a,(OFST+3,sp)
2688  05f0 95            	ld	xh,a
2689  05f1 cd02a7        	call	_OLED_print_string
2691  05f4 85            	popw	x
2692                     ; 318 }
2695  05f5 5b09          	addw	sp,#9
2696  05f7 81            	ret
2699                     	switch	.const
2700  0244               L345_ch:
2701  0244 2e            	dc.b	46
2702  0245 20            	dc.b	32
2703  0246 20            	dc.b	32
2704  0247 20            	dc.b	32
2705  0248 20            	dc.b	32
2706  0249 0a            	dc.b	10
2768                     ; 321 void OLED_print_decimal(unsigned char x_pos, unsigned char y_pos, unsigned int value, unsigned char points)
2768                     ; 322 {
2769                     	switch	.text
2770  05f8               _OLED_print_decimal:
2772  05f8 89            	pushw	x
2773  05f9 5206          	subw	sp,#6
2774       00000006      OFST:	set	6
2777                     ; 323    char ch[6] = {0x2E, 0x20, 0x20, 0x20, 0x20, '\n'};
2779  05fb 96            	ldw	x,sp
2780  05fc 1c0001        	addw	x,#OFST-5
2781  05ff 90ae0244      	ldw	y,#L345_ch
2782  0603 a606          	ld	a,#6
2783  0605 cd0000        	call	c_xymvx
2785                     ; 325   ch[1] = ((value / 1000) + 0x30);
2787  0608 1e0b          	ldw	x,(OFST+5,sp)
2788  060a 90ae03e8      	ldw	y,#1000
2789  060e 65            	divw	x,y
2790  060f 1c0030        	addw	x,#48
2791  0612 01            	rrwa	x,a
2792  0613 6b02          	ld	(OFST-4,sp),a
2793  0615 02            	rlwa	x,a
2795                     ; 327   if(points > 1)
2797  0616 7b0d          	ld	a,(OFST+7,sp)
2798  0618 a102          	cp	a,#2
2799  061a 253d          	jrult	L375
2800                     ; 329     ch[2] = (((value % 1000) / 100) + 0x30);
2802  061c 1e0b          	ldw	x,(OFST+5,sp)
2803  061e 90ae03e8      	ldw	y,#1000
2804  0622 65            	divw	x,y
2805  0623 51            	exgw	x,y
2806  0624 a664          	ld	a,#100
2807  0626 62            	div	x,a
2808  0627 1c0030        	addw	x,#48
2809  062a 01            	rrwa	x,a
2810  062b 6b03          	ld	(OFST-3,sp),a
2811  062d 02            	rlwa	x,a
2813                     ; 331     if(points > 2)
2815  062e 7b0d          	ld	a,(OFST+7,sp)
2816  0630 a103          	cp	a,#3
2817  0632 2525          	jrult	L375
2818                     ; 333       ch[3] = (((value % 100) / 10) + 0x30);
2820  0634 1e0b          	ldw	x,(OFST+5,sp)
2821  0636 a664          	ld	a,#100
2822  0638 62            	div	x,a
2823  0639 5f            	clrw	x
2824  063a 97            	ld	xl,a
2825  063b a60a          	ld	a,#10
2826  063d 62            	div	x,a
2827  063e 1c0030        	addw	x,#48
2828  0641 01            	rrwa	x,a
2829  0642 6b04          	ld	(OFST-2,sp),a
2830  0644 02            	rlwa	x,a
2832                     ; 335       if(points > 3)
2834  0645 7b0d          	ld	a,(OFST+7,sp)
2835  0647 a104          	cp	a,#4
2836  0649 250e          	jrult	L375
2837                     ; 337         ch[4] = ((value % 10) + 0x30);
2839  064b 1e0b          	ldw	x,(OFST+5,sp)
2840  064d a60a          	ld	a,#10
2841  064f 62            	div	x,a
2842  0650 5f            	clrw	x
2843  0651 97            	ld	xl,a
2844  0652 1c0030        	addw	x,#48
2845  0655 01            	rrwa	x,a
2846  0656 6b05          	ld	(OFST-1,sp),a
2847  0658 02            	rlwa	x,a
2849  0659               L375:
2850                     ; 342   OLED_print_string(x_pos, y_pos, ch);
2852  0659 96            	ldw	x,sp
2853  065a 1c0001        	addw	x,#OFST-5
2854  065d 89            	pushw	x
2855  065e 7b0a          	ld	a,(OFST+4,sp)
2856  0660 97            	ld	xl,a
2857  0661 7b09          	ld	a,(OFST+3,sp)
2858  0663 95            	ld	xh,a
2859  0664 cd02a7        	call	_OLED_print_string
2861  0667 85            	popw	x
2862                     ; 343 }
2865  0668 5b08          	addw	sp,#8
2866  066a 81            	ret
2929                     ; 346 void OLED_print_float(unsigned char x_pos, unsigned char y_pos, float value, unsigned char points)
2929                     ; 347 {
2930                     	switch	.text
2931  066b               _OLED_print_float:
2933  066b 89            	pushw	x
2934  066c 5208          	subw	sp,#8
2935       00000008      OFST:	set	8
2938                     ; 348   signed long tmp = 0;
2940                     ; 350   tmp = value;
2942  066e 96            	ldw	x,sp
2943  066f 1c000d        	addw	x,#OFST+5
2944  0672 cd0000        	call	c_ltor
2946  0675 cd0000        	call	c_ftol
2948  0678 96            	ldw	x,sp
2949  0679 1c0005        	addw	x,#OFST-3
2950  067c cd0000        	call	c_rtol
2953                     ; 351   OLED_print_int(x_pos, y_pos, tmp);
2955  067f 1e07          	ldw	x,(OFST-1,sp)
2956  0681 89            	pushw	x
2957  0682 1e07          	ldw	x,(OFST-1,sp)
2958  0684 89            	pushw	x
2959  0685 7b0e          	ld	a,(OFST+6,sp)
2960  0687 97            	ld	xl,a
2961  0688 7b0d          	ld	a,(OFST+5,sp)
2962  068a 95            	ld	xh,a
2963  068b cd03a6        	call	_OLED_print_int
2965  068e 5b04          	addw	sp,#4
2966                     ; 352   tmp = ((value - tmp) * 10000);
2968  0690 96            	ldw	x,sp
2969  0691 1c0005        	addw	x,#OFST-3
2970  0694 cd0000        	call	c_ltor
2972  0697 cd0000        	call	c_ltof
2974  069a 96            	ldw	x,sp
2975  069b 1c0001        	addw	x,#OFST-7
2976  069e cd0000        	call	c_rtol
2979  06a1 96            	ldw	x,sp
2980  06a2 1c000d        	addw	x,#OFST+5
2981  06a5 cd0000        	call	c_ltor
2983  06a8 96            	ldw	x,sp
2984  06a9 1c0001        	addw	x,#OFST-7
2985  06ac cd0000        	call	c_fsub
2987  06af ae024a        	ldw	x,#L136
2988  06b2 cd0000        	call	c_fmul
2990  06b5 cd0000        	call	c_ftol
2992  06b8 96            	ldw	x,sp
2993  06b9 1c0005        	addw	x,#OFST-3
2994  06bc cd0000        	call	c_rtol
2997                     ; 354   if(tmp < 0)
2999  06bf 9c            	rvf
3000  06c0 9c            	rvf
3001  06c1 0d05          	tnz	(OFST-3,sp)
3002  06c3 2e07          	jrsge	L536
3003                     ; 356     tmp = -tmp;
3005  06c5 96            	ldw	x,sp
3006  06c6 1c0005        	addw	x,#OFST-3
3007  06c9 cd0000        	call	c_lgneg
3010  06cc               L536:
3011                     ; 359   if((value >= 10000) && (value < 100000))
3013  06cc 9c            	rvf
3014  06cd ae2710        	ldw	x,#10000
3015  06d0 cd0000        	call	c_itof
3017  06d3 96            	ldw	x,sp
3018  06d4 1c0001        	addw	x,#OFST-7
3019  06d7 cd0000        	call	c_rtol
3022  06da 96            	ldw	x,sp
3023  06db 1c000d        	addw	x,#OFST+5
3024  06de cd0000        	call	c_ltor
3026  06e1 96            	ldw	x,sp
3027  06e2 1c0001        	addw	x,#OFST-7
3028  06e5 cd0000        	call	c_fcmp
3030  06e8 2f3c          	jrslt	L736
3032  06ea 9c            	rvf
3033  06eb ae86a0        	ldw	x,#34464
3034  06ee bf02          	ldw	c_lreg+2,x
3035  06f0 ae0001        	ldw	x,#1
3036  06f3 bf00          	ldw	c_lreg,x
3037  06f5 cd0000        	call	c_ltof
3039  06f8 96            	ldw	x,sp
3040  06f9 1c0001        	addw	x,#OFST-7
3041  06fc cd0000        	call	c_rtol
3044  06ff 96            	ldw	x,sp
3045  0700 1c000d        	addw	x,#OFST+5
3046  0703 cd0000        	call	c_ltor
3048  0706 96            	ldw	x,sp
3049  0707 1c0001        	addw	x,#OFST-7
3050  070a cd0000        	call	c_fcmp
3052  070d 2e17          	jrsge	L736
3053                     ; 361     OLED_print_decimal((x_pos + 36), y_pos, tmp, points);
3055  070f 7b11          	ld	a,(OFST+9,sp)
3056  0711 88            	push	a
3057  0712 1e08          	ldw	x,(OFST+0,sp)
3058  0714 89            	pushw	x
3059  0715 7b0d          	ld	a,(OFST+5,sp)
3060  0717 97            	ld	xl,a
3061  0718 7b0c          	ld	a,(OFST+4,sp)
3062  071a ab24          	add	a,#36
3063  071c 95            	ld	xh,a
3064  071d cd05f8        	call	_OLED_print_decimal
3066  0720 5b03          	addw	sp,#3
3068  0722 ac6a086a      	jpf	L146
3069  0726               L736:
3070                     ; 363   else if((value >= 1000) && (value < 10000))
3072  0726 9c            	rvf
3073  0727 ae03e8        	ldw	x,#1000
3074  072a cd0000        	call	c_itof
3076  072d 96            	ldw	x,sp
3077  072e 1c0001        	addw	x,#OFST-7
3078  0731 cd0000        	call	c_rtol
3081  0734 96            	ldw	x,sp
3082  0735 1c000d        	addw	x,#OFST+5
3083  0738 cd0000        	call	c_ltor
3085  073b 96            	ldw	x,sp
3086  073c 1c0001        	addw	x,#OFST-7
3087  073f cd0000        	call	c_fcmp
3089  0742 2f35          	jrslt	L346
3091  0744 9c            	rvf
3092  0745 ae2710        	ldw	x,#10000
3093  0748 cd0000        	call	c_itof
3095  074b 96            	ldw	x,sp
3096  074c 1c0001        	addw	x,#OFST-7
3097  074f cd0000        	call	c_rtol
3100  0752 96            	ldw	x,sp
3101  0753 1c000d        	addw	x,#OFST+5
3102  0756 cd0000        	call	c_ltor
3104  0759 96            	ldw	x,sp
3105  075a 1c0001        	addw	x,#OFST-7
3106  075d cd0000        	call	c_fcmp
3108  0760 2e17          	jrsge	L346
3109                     ; 365     OLED_print_decimal((x_pos + 30), y_pos, tmp, points);
3111  0762 7b11          	ld	a,(OFST+9,sp)
3112  0764 88            	push	a
3113  0765 1e08          	ldw	x,(OFST+0,sp)
3114  0767 89            	pushw	x
3115  0768 7b0d          	ld	a,(OFST+5,sp)
3116  076a 97            	ld	xl,a
3117  076b 7b0c          	ld	a,(OFST+4,sp)
3118  076d ab1e          	add	a,#30
3119  076f 95            	ld	xh,a
3120  0770 cd05f8        	call	_OLED_print_decimal
3122  0773 5b03          	addw	sp,#3
3124  0775 ac6a086a      	jpf	L146
3125  0779               L346:
3126                     ; 367   else if((value >= 100) && (value < 1000))
3128  0779 9c            	rvf
3129  077a a664          	ld	a,#100
3130  077c cd0000        	call	c_ctof
3132  077f 96            	ldw	x,sp
3133  0780 1c0001        	addw	x,#OFST-7
3134  0783 cd0000        	call	c_rtol
3137  0786 96            	ldw	x,sp
3138  0787 1c000d        	addw	x,#OFST+5
3139  078a cd0000        	call	c_ltor
3141  078d 96            	ldw	x,sp
3142  078e 1c0001        	addw	x,#OFST-7
3143  0791 cd0000        	call	c_fcmp
3145  0794 2f35          	jrslt	L746
3147  0796 9c            	rvf
3148  0797 ae03e8        	ldw	x,#1000
3149  079a cd0000        	call	c_itof
3151  079d 96            	ldw	x,sp
3152  079e 1c0001        	addw	x,#OFST-7
3153  07a1 cd0000        	call	c_rtol
3156  07a4 96            	ldw	x,sp
3157  07a5 1c000d        	addw	x,#OFST+5
3158  07a8 cd0000        	call	c_ltor
3160  07ab 96            	ldw	x,sp
3161  07ac 1c0001        	addw	x,#OFST-7
3162  07af cd0000        	call	c_fcmp
3164  07b2 2e17          	jrsge	L746
3165                     ; 369     OLED_print_decimal((x_pos + 24), y_pos, tmp, points);
3167  07b4 7b11          	ld	a,(OFST+9,sp)
3168  07b6 88            	push	a
3169  07b7 1e08          	ldw	x,(OFST+0,sp)
3170  07b9 89            	pushw	x
3171  07ba 7b0d          	ld	a,(OFST+5,sp)
3172  07bc 97            	ld	xl,a
3173  07bd 7b0c          	ld	a,(OFST+4,sp)
3174  07bf ab18          	add	a,#24
3175  07c1 95            	ld	xh,a
3176  07c2 cd05f8        	call	_OLED_print_decimal
3178  07c5 5b03          	addw	sp,#3
3180  07c7 ac6a086a      	jpf	L146
3181  07cb               L746:
3182                     ; 371   else if((value >= 10) && (value < 100))
3184  07cb 9c            	rvf
3185  07cc a60a          	ld	a,#10
3186  07ce cd0000        	call	c_ctof
3188  07d1 96            	ldw	x,sp
3189  07d2 1c0001        	addw	x,#OFST-7
3190  07d5 cd0000        	call	c_rtol
3193  07d8 96            	ldw	x,sp
3194  07d9 1c000d        	addw	x,#OFST+5
3195  07dc cd0000        	call	c_ltor
3197  07df 96            	ldw	x,sp
3198  07e0 1c0001        	addw	x,#OFST-7
3199  07e3 cd0000        	call	c_fcmp
3201  07e6 2f32          	jrslt	L356
3203  07e8 9c            	rvf
3204  07e9 a664          	ld	a,#100
3205  07eb cd0000        	call	c_ctof
3207  07ee 96            	ldw	x,sp
3208  07ef 1c0001        	addw	x,#OFST-7
3209  07f2 cd0000        	call	c_rtol
3212  07f5 96            	ldw	x,sp
3213  07f6 1c000d        	addw	x,#OFST+5
3214  07f9 cd0000        	call	c_ltor
3216  07fc 96            	ldw	x,sp
3217  07fd 1c0001        	addw	x,#OFST-7
3218  0800 cd0000        	call	c_fcmp
3220  0803 2e15          	jrsge	L356
3221                     ; 373     OLED_print_decimal((x_pos + 18), y_pos, tmp, points);
3223  0805 7b11          	ld	a,(OFST+9,sp)
3224  0807 88            	push	a
3225  0808 1e08          	ldw	x,(OFST+0,sp)
3226  080a 89            	pushw	x
3227  080b 7b0d          	ld	a,(OFST+5,sp)
3228  080d 97            	ld	xl,a
3229  080e 7b0c          	ld	a,(OFST+4,sp)
3230  0810 ab12          	add	a,#18
3231  0812 95            	ld	xh,a
3232  0813 cd05f8        	call	_OLED_print_decimal
3234  0816 5b03          	addw	sp,#3
3236  0818 2050          	jra	L146
3237  081a               L356:
3238                     ; 375   else if(value < 10)
3240  081a 9c            	rvf
3241  081b a60a          	ld	a,#10
3242  081d cd0000        	call	c_ctof
3244  0820 96            	ldw	x,sp
3245  0821 1c0001        	addw	x,#OFST-7
3246  0824 cd0000        	call	c_rtol
3249  0827 96            	ldw	x,sp
3250  0828 1c000d        	addw	x,#OFST+5
3251  082b cd0000        	call	c_ltor
3253  082e 96            	ldw	x,sp
3254  082f 1c0001        	addw	x,#OFST-7
3255  0832 cd0000        	call	c_fcmp
3257  0835 2e33          	jrsge	L146
3258                     ; 377     OLED_print_decimal((x_pos + 12), y_pos, tmp, points);
3260  0837 7b11          	ld	a,(OFST+9,sp)
3261  0839 88            	push	a
3262  083a 1e08          	ldw	x,(OFST+0,sp)
3263  083c 89            	pushw	x
3264  083d 7b0d          	ld	a,(OFST+5,sp)
3265  083f 97            	ld	xl,a
3266  0840 7b0c          	ld	a,(OFST+4,sp)
3267  0842 ab0c          	add	a,#12
3268  0844 95            	ld	xh,a
3269  0845 cd05f8        	call	_OLED_print_decimal
3271  0848 5b03          	addw	sp,#3
3272                     ; 379     if(value < 0)
3274  084a 9c            	rvf
3275  084b 9c            	rvf
3276  084c 0d0d          	tnz	(OFST+5,sp)
3277  084e 2e0e          	jrsge	L166
3278                     ; 381         OLED_print_char(x_pos, y_pos, 0x2D);
3280  0850 4b2d          	push	#45
3281  0852 7b0b          	ld	a,(OFST+3,sp)
3282  0854 97            	ld	xl,a
3283  0855 7b0a          	ld	a,(OFST+2,sp)
3284  0857 95            	ld	xh,a
3285  0858 cd0267        	call	_OLED_print_char
3287  085b 84            	pop	a
3289  085c 200c          	jra	L146
3290  085e               L166:
3291                     ; 385         OLED_print_char(x_pos, y_pos, 0x20);
3293  085e 4b20          	push	#32
3294  0860 7b0b          	ld	a,(OFST+3,sp)
3295  0862 97            	ld	xl,a
3296  0863 7b0a          	ld	a,(OFST+2,sp)
3297  0865 95            	ld	xh,a
3298  0866 cd0267        	call	_OLED_print_char
3300  0869 84            	pop	a
3301  086a               L146:
3302                     ; 388 }
3305  086a 5b0a          	addw	sp,#10
3306  086c 81            	ret
3376                     ; 391 void Draw_Pixel(unsigned char x_pos, unsigned char y_pos, unsigned char colour)
3376                     ; 392 {
3377                     	switch	.text
3378  086d               _Draw_Pixel:
3380  086d 89            	pushw	x
3381  086e 5203          	subw	sp,#3
3382       00000003      OFST:	set	3
3385                     ; 393     unsigned char value = 0x00;
3387                     ; 394     unsigned char page = 0x00;
3389                     ; 395     unsigned char bit_pos = 0x00;
3391                     ; 397     page = (y_pos / y_max);
3393  0870 9f            	ld	a,xl
3394  0871 5f            	clrw	x
3395  0872 97            	ld	xl,a
3396  0873 57            	sraw	x
3397  0874 57            	sraw	x
3398  0875 57            	sraw	x
3399  0876 01            	rrwa	x,a
3400  0877 6b03          	ld	(OFST+0,sp),a
3401  0879 02            	rlwa	x,a
3403                     ; 398     bit_pos = (y_pos - (page * y_max));
3405  087a 7b03          	ld	a,(OFST+0,sp)
3406  087c 48            	sll	a
3407  087d 48            	sll	a
3408  087e 48            	sll	a
3409  087f 1005          	sub	a,(OFST+2,sp)
3410  0881 40            	neg	a
3411  0882 6b01          	ld	(OFST-2,sp),a
3413                     ; 399     value = buffer[((page * x_max) + x_pos)];
3415  0884 7b03          	ld	a,(OFST+0,sp)
3416  0886 97            	ld	xl,a
3417  0887 a680          	ld	a,#128
3418  0889 42            	mul	x,a
3419  088a 01            	rrwa	x,a
3420  088b 1b04          	add	a,(OFST+1,sp)
3421  088d 2401          	jrnc	L46
3422  088f 5c            	incw	x
3423  0890               L46:
3424  0890 02            	rlwa	x,a
3425  0891 d60000        	ld	a,(_buffer,x)
3426  0894 6b02          	ld	(OFST-1,sp),a
3428                     ; 401     if((colour & YES) != NO)
3430  0896 7b08          	ld	a,(OFST+5,sp)
3431  0898 a501          	bcp	a,#1
3432  089a 2713          	jreq	L317
3433                     ; 403         value |= (1 << bit_pos);
3435  089c 7b01          	ld	a,(OFST-2,sp)
3436  089e 5f            	clrw	x
3437  089f 97            	ld	xl,a
3438  08a0 a601          	ld	a,#1
3439  08a2 5d            	tnzw	x
3440  08a3 2704          	jreq	L66
3441  08a5               L07:
3442  08a5 48            	sll	a
3443  08a6 5a            	decw	x
3444  08a7 26fc          	jrne	L07
3445  08a9               L66:
3446  08a9 1a02          	or	a,(OFST-1,sp)
3447  08ab 6b02          	ld	(OFST-1,sp),a
3450  08ad 2012          	jra	L517
3451  08af               L317:
3452                     ; 407         value &= (~(1 << bit_pos));
3454  08af 7b01          	ld	a,(OFST-2,sp)
3455  08b1 5f            	clrw	x
3456  08b2 97            	ld	xl,a
3457  08b3 a601          	ld	a,#1
3458  08b5 5d            	tnzw	x
3459  08b6 2704          	jreq	L27
3460  08b8               L47:
3461  08b8 48            	sll	a
3462  08b9 5a            	decw	x
3463  08ba 26fc          	jrne	L47
3464  08bc               L27:
3465  08bc 43            	cpl	a
3466  08bd 1402          	and	a,(OFST-1,sp)
3467  08bf 6b02          	ld	(OFST-1,sp),a
3469  08c1               L517:
3470                     ; 410     buffer[((page * x_max) + x_pos)] = value;
3472  08c1 7b03          	ld	a,(OFST+0,sp)
3473  08c3 97            	ld	xl,a
3474  08c4 a680          	ld	a,#128
3475  08c6 42            	mul	x,a
3476  08c7 01            	rrwa	x,a
3477  08c8 1b04          	add	a,(OFST+1,sp)
3478  08ca 2401          	jrnc	L67
3479  08cc 5c            	incw	x
3480  08cd               L67:
3481  08cd 02            	rlwa	x,a
3482  08ce 7b02          	ld	a,(OFST-1,sp)
3483  08d0 d70000        	ld	(_buffer,x),a
3484                     ; 411     OLED_gotoxy(x_pos, page);
3486  08d3 7b03          	ld	a,(OFST+0,sp)
3487  08d5 97            	ld	xl,a
3488  08d6 7b04          	ld	a,(OFST+1,sp)
3489  08d8 95            	ld	xh,a
3490  08d9 cd0176        	call	_OLED_gotoxy
3492                     ; 412     OLED_write(value, DAT);
3494  08dc 7b02          	ld	a,(OFST-1,sp)
3495  08de ae0001        	ldw	x,#1
3496  08e1 95            	ld	xh,a
3497  08e2 cd010a        	call	_OLED_write
3499                     ; 413 }
3502  08e5 5b05          	addw	sp,#5
3503  08e7 81            	ret
3599                     ; 416 void Draw_Line(signed int x1, signed int y1, signed int x2, signed int y2, unsigned char colour)
3599                     ; 417 {
3600                     	switch	.text
3601  08e8               _Draw_Line:
3603  08e8 89            	pushw	x
3604  08e9 520c          	subw	sp,#12
3605       0000000c      OFST:	set	12
3608                     ; 418     signed int dx = 0x0000;
3610                     ; 419     signed int dy = 0x0000;
3612                     ; 420     signed int stepx = 0x0000;
3614                     ; 421     signed int stepy = 0x0000;
3616                     ; 422     signed int fraction = 0x0000;
3618                     ; 424     dy = (y2 - y1);
3620  08eb 1e15          	ldw	x,(OFST+9,sp)
3621  08ed 72f011        	subw	x,(OFST+5,sp)
3622  08f0 1f09          	ldw	(OFST-3,sp),x
3624                     ; 425     dx = (x2 - x1);
3626  08f2 1e13          	ldw	x,(OFST+7,sp)
3627  08f4 72f00d        	subw	x,(OFST+1,sp)
3628  08f7 1f07          	ldw	(OFST-5,sp),x
3630                     ; 427     if (dy < 0)
3632  08f9 9c            	rvf
3633  08fa 1e09          	ldw	x,(OFST-3,sp)
3634  08fc 2e0c          	jrsge	L557
3635                     ; 429         dy = -dy;
3637  08fe 1e09          	ldw	x,(OFST-3,sp)
3638  0900 50            	negw	x
3639  0901 1f09          	ldw	(OFST-3,sp),x
3641                     ; 430         stepy = -1;
3643  0903 aeffff        	ldw	x,#65535
3644  0906 1f05          	ldw	(OFST-7,sp),x
3647  0908 2005          	jra	L757
3648  090a               L557:
3649                     ; 434         stepy = 1;
3651  090a ae0001        	ldw	x,#1
3652  090d 1f05          	ldw	(OFST-7,sp),x
3654  090f               L757:
3655                     ; 437     if (dx < 0)
3657  090f 9c            	rvf
3658  0910 1e07          	ldw	x,(OFST-5,sp)
3659  0912 2e0c          	jrsge	L167
3660                     ; 439         dx = -dx;
3662  0914 1e07          	ldw	x,(OFST-5,sp)
3663  0916 50            	negw	x
3664  0917 1f07          	ldw	(OFST-5,sp),x
3666                     ; 440         stepx = -1;
3668  0919 aeffff        	ldw	x,#65535
3669  091c 1f03          	ldw	(OFST-9,sp),x
3672  091e 2005          	jra	L367
3673  0920               L167:
3674                     ; 444         stepx = 1;
3676  0920 ae0001        	ldw	x,#1
3677  0923 1f03          	ldw	(OFST-9,sp),x
3679  0925               L367:
3680                     ; 447     dx <<= 1;
3682  0925 0808          	sll	(OFST-4,sp)
3683  0927 0907          	rlc	(OFST-5,sp)
3685                     ; 448     dy <<= 1;
3687  0929 080a          	sll	(OFST-2,sp)
3688  092b 0909          	rlc	(OFST-3,sp)
3690                     ; 450     Draw_Pixel(x1, y1, colour);
3692  092d 7b17          	ld	a,(OFST+11,sp)
3693  092f 88            	push	a
3694  0930 7b13          	ld	a,(OFST+7,sp)
3695  0932 97            	ld	xl,a
3696  0933 7b0f          	ld	a,(OFST+3,sp)
3697  0935 95            	ld	xh,a
3698  0936 cd086d        	call	_Draw_Pixel
3700  0939 84            	pop	a
3701                     ; 452     if(dx > dy)
3703  093a 9c            	rvf
3704  093b 1e07          	ldw	x,(OFST-5,sp)
3705  093d 1309          	cpw	x,(OFST-3,sp)
3706  093f 2d45          	jrsle	L567
3707                     ; 454         fraction = (dy - (dx >> 1));
3709  0941 1e07          	ldw	x,(OFST-5,sp)
3710  0943 57            	sraw	x
3711  0944 1f01          	ldw	(OFST-11,sp),x
3713  0946 1e09          	ldw	x,(OFST-3,sp)
3714  0948 72f001        	subw	x,(OFST-11,sp)
3715  094b 1f0b          	ldw	(OFST-1,sp),x
3718  094d 202e          	jra	L377
3719  094f               L767:
3720                     ; 457             if(fraction >= 0)
3722  094f 9c            	rvf
3723  0950 1e0b          	ldw	x,(OFST-1,sp)
3724  0952 2f0e          	jrslt	L777
3725                     ; 459                 y1 += stepy;
3727  0954 1e11          	ldw	x,(OFST+5,sp)
3728  0956 72fb05        	addw	x,(OFST-7,sp)
3729  0959 1f11          	ldw	(OFST+5,sp),x
3730                     ; 460                 fraction -= dx;
3732  095b 1e0b          	ldw	x,(OFST-1,sp)
3733  095d 72f007        	subw	x,(OFST-5,sp)
3734  0960 1f0b          	ldw	(OFST-1,sp),x
3736  0962               L777:
3737                     ; 463             x1 += stepx;
3739  0962 1e0d          	ldw	x,(OFST+1,sp)
3740  0964 72fb03        	addw	x,(OFST-9,sp)
3741  0967 1f0d          	ldw	(OFST+1,sp),x
3742                     ; 464             fraction += dy;
3744  0969 1e0b          	ldw	x,(OFST-1,sp)
3745  096b 72fb09        	addw	x,(OFST-3,sp)
3746  096e 1f0b          	ldw	(OFST-1,sp),x
3748                     ; 466             Draw_Pixel(x1, y1, colour);
3750  0970 7b17          	ld	a,(OFST+11,sp)
3751  0972 88            	push	a
3752  0973 7b13          	ld	a,(OFST+7,sp)
3753  0975 97            	ld	xl,a
3754  0976 7b0f          	ld	a,(OFST+3,sp)
3755  0978 95            	ld	xh,a
3756  0979 cd086d        	call	_Draw_Pixel
3758  097c 84            	pop	a
3759  097d               L377:
3760                     ; 455         while (x1 != x2)
3762  097d 1e0d          	ldw	x,(OFST+1,sp)
3763  097f 1313          	cpw	x,(OFST+7,sp)
3764  0981 26cc          	jrne	L767
3766  0983               L1001:
3767                     ; 486 }
3770  0983 5b0e          	addw	sp,#14
3771  0985 81            	ret
3772  0986               L567:
3773                     ; 471         fraction = (dx - (dy >> 1));
3775  0986 1e09          	ldw	x,(OFST-3,sp)
3776  0988 57            	sraw	x
3777  0989 1f01          	ldw	(OFST-11,sp),x
3779  098b 1e07          	ldw	x,(OFST-5,sp)
3780  098d 72f001        	subw	x,(OFST-11,sp)
3781  0990 1f0b          	ldw	(OFST-1,sp),x
3784  0992 202e          	jra	L7001
3785  0994               L3001:
3786                     ; 474             if (fraction >= 0)
3788  0994 9c            	rvf
3789  0995 1e0b          	ldw	x,(OFST-1,sp)
3790  0997 2f0e          	jrslt	L3101
3791                     ; 476                 x1 += stepx;
3793  0999 1e0d          	ldw	x,(OFST+1,sp)
3794  099b 72fb03        	addw	x,(OFST-9,sp)
3795  099e 1f0d          	ldw	(OFST+1,sp),x
3796                     ; 477                 fraction -= dy;
3798  09a0 1e0b          	ldw	x,(OFST-1,sp)
3799  09a2 72f009        	subw	x,(OFST-3,sp)
3800  09a5 1f0b          	ldw	(OFST-1,sp),x
3802  09a7               L3101:
3803                     ; 480             y1 += stepy;
3805  09a7 1e11          	ldw	x,(OFST+5,sp)
3806  09a9 72fb05        	addw	x,(OFST-7,sp)
3807  09ac 1f11          	ldw	(OFST+5,sp),x
3808                     ; 481             fraction += dx;
3810  09ae 1e0b          	ldw	x,(OFST-1,sp)
3811  09b0 72fb07        	addw	x,(OFST-5,sp)
3812  09b3 1f0b          	ldw	(OFST-1,sp),x
3814                     ; 483             Draw_Pixel(x1, y1, colour);
3816  09b5 7b17          	ld	a,(OFST+11,sp)
3817  09b7 88            	push	a
3818  09b8 7b13          	ld	a,(OFST+7,sp)
3819  09ba 97            	ld	xl,a
3820  09bb 7b0f          	ld	a,(OFST+3,sp)
3821  09bd 95            	ld	xh,a
3822  09be cd086d        	call	_Draw_Pixel
3824  09c1 84            	pop	a
3825  09c2               L7001:
3826                     ; 472         while (y1 != y2)
3828  09c2 1e11          	ldw	x,(OFST+5,sp)
3829  09c4 1315          	cpw	x,(OFST+9,sp)
3830  09c6 26cc          	jrne	L3001
3831  09c8 20b9          	jra	L1001
3942                     ; 489 void Draw_Rectangle(signed int x1, signed int y1, signed int x2, signed int y2, unsigned char fill, unsigned char colour, unsigned char type)
3942                     ; 490 {
3943                     	switch	.text
3944  09ca               _Draw_Rectangle:
3946  09ca 89            	pushw	x
3947  09cb 520a          	subw	sp,#10
3948       0000000a      OFST:	set	10
3951                     ; 491      unsigned short i = 0x00;
3953                     ; 492      unsigned short xmin = 0x00;
3955                     ; 493      unsigned short xmax = 0x00;
3957                     ; 494      unsigned short ymin = 0x00;
3959                     ; 495      unsigned short ymax = 0x00;
3961                     ; 497      if(fill != NO)
3963  09cd 0d15          	tnz	(OFST+11,sp)
3964  09cf 275f          	jreq	L7501
3965                     ; 499         if(x1 < x2)
3967  09d1 9c            	rvf
3968  09d2 1311          	cpw	x,(OFST+7,sp)
3969  09d4 2e08          	jrsge	L1601
3970                     ; 501            xmin = x1;
3972  09d6 1f07          	ldw	(OFST-3,sp),x
3974                     ; 502            xmax = x2;
3976  09d8 1e11          	ldw	x,(OFST+7,sp)
3977  09da 1f01          	ldw	(OFST-9,sp),x
3980  09dc 2008          	jra	L3601
3981  09de               L1601:
3982                     ; 506            xmin = x2;
3984  09de 1e11          	ldw	x,(OFST+7,sp)
3985  09e0 1f07          	ldw	(OFST-3,sp),x
3987                     ; 507            xmax = x1;
3989  09e2 1e0b          	ldw	x,(OFST+1,sp)
3990  09e4 1f01          	ldw	(OFST-9,sp),x
3992  09e6               L3601:
3993                     ; 510         if(y1 < y2)
3995  09e6 9c            	rvf
3996  09e7 1e0f          	ldw	x,(OFST+5,sp)
3997  09e9 1313          	cpw	x,(OFST+9,sp)
3998  09eb 2e0a          	jrsge	L5601
3999                     ; 512            ymin = y1;
4001  09ed 1e0f          	ldw	x,(OFST+5,sp)
4002  09ef 1f03          	ldw	(OFST-7,sp),x
4004                     ; 513            ymax = y2;
4006  09f1 1e13          	ldw	x,(OFST+9,sp)
4007  09f3 1f05          	ldw	(OFST-5,sp),x
4010  09f5 2031          	jra	L5701
4011  09f7               L5601:
4012                     ; 517            ymin = y2;
4014  09f7 1e13          	ldw	x,(OFST+9,sp)
4015  09f9 1f03          	ldw	(OFST-7,sp),x
4017                     ; 518            ymax = y1;
4019  09fb 1e0f          	ldw	x,(OFST+5,sp)
4020  09fd 1f05          	ldw	(OFST-5,sp),x
4022  09ff 2027          	jra	L5701
4023  0a01               L1701:
4024                     ; 523            for(i = ymin; i <= ymax; ++i)
4026  0a01 1e03          	ldw	x,(OFST-7,sp)
4027  0a03 1f09          	ldw	(OFST-1,sp),x
4030  0a05 2014          	jra	L5011
4031  0a07               L1011:
4032                     ; 525                Draw_Pixel(xmin, i, colour);
4034  0a07 7b16          	ld	a,(OFST+12,sp)
4035  0a09 88            	push	a
4036  0a0a 7b0b          	ld	a,(OFST+1,sp)
4037  0a0c 97            	ld	xl,a
4038  0a0d 7b09          	ld	a,(OFST-1,sp)
4039  0a0f 95            	ld	xh,a
4040  0a10 cd086d        	call	_Draw_Pixel
4042  0a13 84            	pop	a
4043                     ; 523            for(i = ymin; i <= ymax; ++i)
4045  0a14 1e09          	ldw	x,(OFST-1,sp)
4046  0a16 1c0001        	addw	x,#1
4047  0a19 1f09          	ldw	(OFST-1,sp),x
4049  0a1b               L5011:
4052  0a1b 1e09          	ldw	x,(OFST-1,sp)
4053  0a1d 1305          	cpw	x,(OFST-5,sp)
4054  0a1f 23e6          	jrule	L1011
4055                     ; 521         for(; xmin <= xmax; ++xmin)
4057  0a21 1e07          	ldw	x,(OFST-3,sp)
4058  0a23 1c0001        	addw	x,#1
4059  0a26 1f07          	ldw	(OFST-3,sp),x
4061  0a28               L5701:
4064  0a28 1e07          	ldw	x,(OFST-3,sp)
4065  0a2a 1301          	cpw	x,(OFST-9,sp)
4066  0a2c 23d3          	jrule	L1701
4068  0a2e 204c          	jra	L1111
4069  0a30               L7501:
4070                     ; 532         Draw_Line(x1, y1, x2, y1, colour);
4072  0a30 7b16          	ld	a,(OFST+12,sp)
4073  0a32 88            	push	a
4074  0a33 1e10          	ldw	x,(OFST+6,sp)
4075  0a35 89            	pushw	x
4076  0a36 1e14          	ldw	x,(OFST+10,sp)
4077  0a38 89            	pushw	x
4078  0a39 1e14          	ldw	x,(OFST+10,sp)
4079  0a3b 89            	pushw	x
4080  0a3c 1e12          	ldw	x,(OFST+8,sp)
4081  0a3e cd08e8        	call	_Draw_Line
4083  0a41 5b07          	addw	sp,#7
4084                     ; 533         Draw_Line(x1, y2, x2, y2, colour);
4086  0a43 7b16          	ld	a,(OFST+12,sp)
4087  0a45 88            	push	a
4088  0a46 1e14          	ldw	x,(OFST+10,sp)
4089  0a48 89            	pushw	x
4090  0a49 1e14          	ldw	x,(OFST+10,sp)
4091  0a4b 89            	pushw	x
4092  0a4c 1e18          	ldw	x,(OFST+14,sp)
4093  0a4e 89            	pushw	x
4094  0a4f 1e12          	ldw	x,(OFST+8,sp)
4095  0a51 cd08e8        	call	_Draw_Line
4097  0a54 5b07          	addw	sp,#7
4098                     ; 534         Draw_Line(x1, y1, x1, y2, colour);
4100  0a56 7b16          	ld	a,(OFST+12,sp)
4101  0a58 88            	push	a
4102  0a59 1e14          	ldw	x,(OFST+10,sp)
4103  0a5b 89            	pushw	x
4104  0a5c 1e0e          	ldw	x,(OFST+4,sp)
4105  0a5e 89            	pushw	x
4106  0a5f 1e14          	ldw	x,(OFST+10,sp)
4107  0a61 89            	pushw	x
4108  0a62 1e12          	ldw	x,(OFST+8,sp)
4109  0a64 cd08e8        	call	_Draw_Line
4111  0a67 5b07          	addw	sp,#7
4112                     ; 535         Draw_Line(x2, y1, x2, y2, colour);
4114  0a69 7b16          	ld	a,(OFST+12,sp)
4115  0a6b 88            	push	a
4116  0a6c 1e14          	ldw	x,(OFST+10,sp)
4117  0a6e 89            	pushw	x
4118  0a6f 1e14          	ldw	x,(OFST+10,sp)
4119  0a71 89            	pushw	x
4120  0a72 1e14          	ldw	x,(OFST+10,sp)
4121  0a74 89            	pushw	x
4122  0a75 1e18          	ldw	x,(OFST+14,sp)
4123  0a77 cd08e8        	call	_Draw_Line
4125  0a7a 5b07          	addw	sp,#7
4126  0a7c               L1111:
4127                     ; 538      if(type != SQUARE)
4129  0a7c 0d17          	tnz	(OFST+13,sp)
4130  0a7e 2738          	jreq	L3111
4131                     ; 540          Draw_Pixel(x1, y1, ~colour);
4133  0a80 7b16          	ld	a,(OFST+12,sp)
4134  0a82 43            	cpl	a
4135  0a83 88            	push	a
4136  0a84 7b11          	ld	a,(OFST+7,sp)
4137  0a86 97            	ld	xl,a
4138  0a87 7b0d          	ld	a,(OFST+3,sp)
4139  0a89 95            	ld	xh,a
4140  0a8a cd086d        	call	_Draw_Pixel
4142  0a8d 84            	pop	a
4143                     ; 541          Draw_Pixel(x1, y2, ~colour);
4145  0a8e 7b16          	ld	a,(OFST+12,sp)
4146  0a90 43            	cpl	a
4147  0a91 88            	push	a
4148  0a92 7b15          	ld	a,(OFST+11,sp)
4149  0a94 97            	ld	xl,a
4150  0a95 7b0d          	ld	a,(OFST+3,sp)
4151  0a97 95            	ld	xh,a
4152  0a98 cd086d        	call	_Draw_Pixel
4154  0a9b 84            	pop	a
4155                     ; 542          Draw_Pixel(x2, y1, ~colour);
4157  0a9c 7b16          	ld	a,(OFST+12,sp)
4158  0a9e 43            	cpl	a
4159  0a9f 88            	push	a
4160  0aa0 7b11          	ld	a,(OFST+7,sp)
4161  0aa2 97            	ld	xl,a
4162  0aa3 7b13          	ld	a,(OFST+9,sp)
4163  0aa5 95            	ld	xh,a
4164  0aa6 cd086d        	call	_Draw_Pixel
4166  0aa9 84            	pop	a
4167                     ; 543          Draw_Pixel(x2, y2, ~colour);
4169  0aaa 7b16          	ld	a,(OFST+12,sp)
4170  0aac 43            	cpl	a
4171  0aad 88            	push	a
4172  0aae 7b15          	ld	a,(OFST+11,sp)
4173  0ab0 97            	ld	xl,a
4174  0ab1 7b13          	ld	a,(OFST+9,sp)
4175  0ab3 95            	ld	xh,a
4176  0ab4 cd086d        	call	_Draw_Pixel
4178  0ab7 84            	pop	a
4179  0ab8               L3111:
4180                     ; 545 }
4183  0ab8 5b0c          	addw	sp,#12
4184  0aba 81            	ret
4267                     ; 548 void Draw_Circle(signed int xc, signed int yc, signed int radius, unsigned char fill, unsigned char colour)
4267                     ; 549 {
4268                     	switch	.text
4269  0abb               _Draw_Circle:
4271  0abb 89            	pushw	x
4272  0abc 5208          	subw	sp,#8
4273       00000008      OFST:	set	8
4276                     ; 550    signed int a = 0x0000;
4278  0abe 5f            	clrw	x
4279  0abf 1f07          	ldw	(OFST-1,sp),x
4281                     ; 551    signed int b = 0x0000;
4283                     ; 552    signed int P = 0x0000;
4285                     ; 554    b = radius;
4287  0ac1 1e0f          	ldw	x,(OFST+7,sp)
4288  0ac3 1f05          	ldw	(OFST-3,sp),x
4290                     ; 555    P = (1 - b);
4292  0ac5 ae0001        	ldw	x,#1
4293  0ac8 72f005        	subw	x,(OFST-3,sp)
4294  0acb 1f03          	ldw	(OFST-5,sp),x
4296  0acd               L7411:
4297                     ; 559         if(fill != NO)
4299  0acd 0d11          	tnz	(OFST+9,sp)
4300  0acf 2603cc0b54    	jreq	L5511
4301                     ; 561            Draw_Line((xc - a), (yc + b), (xc + a), (yc + b), colour);
4303  0ad4 7b12          	ld	a,(OFST+10,sp)
4304  0ad6 88            	push	a
4305  0ad7 1e0e          	ldw	x,(OFST+6,sp)
4306  0ad9 72fb06        	addw	x,(OFST-2,sp)
4307  0adc 89            	pushw	x
4308  0add 1e0c          	ldw	x,(OFST+4,sp)
4309  0adf 72fb0a        	addw	x,(OFST+2,sp)
4310  0ae2 89            	pushw	x
4311  0ae3 1e12          	ldw	x,(OFST+10,sp)
4312  0ae5 72fb0a        	addw	x,(OFST+2,sp)
4313  0ae8 89            	pushw	x
4314  0ae9 1e10          	ldw	x,(OFST+8,sp)
4315  0aeb 72f00e        	subw	x,(OFST+6,sp)
4316  0aee cd08e8        	call	_Draw_Line
4318  0af1 5b07          	addw	sp,#7
4319                     ; 562            Draw_Line((xc - a), (yc - b), (xc + a), (yc - b), colour);
4321  0af3 7b12          	ld	a,(OFST+10,sp)
4322  0af5 88            	push	a
4323  0af6 1e0e          	ldw	x,(OFST+6,sp)
4324  0af8 72f006        	subw	x,(OFST-2,sp)
4325  0afb 89            	pushw	x
4326  0afc 1e0c          	ldw	x,(OFST+4,sp)
4327  0afe 72fb0a        	addw	x,(OFST+2,sp)
4328  0b01 89            	pushw	x
4329  0b02 1e12          	ldw	x,(OFST+10,sp)
4330  0b04 72f00a        	subw	x,(OFST+2,sp)
4331  0b07 89            	pushw	x
4332  0b08 1e10          	ldw	x,(OFST+8,sp)
4333  0b0a 72f00e        	subw	x,(OFST+6,sp)
4334  0b0d cd08e8        	call	_Draw_Line
4336  0b10 5b07          	addw	sp,#7
4337                     ; 563            Draw_Line((xc - b), (yc + a), (xc + b), (yc + a), colour);
4339  0b12 7b12          	ld	a,(OFST+10,sp)
4340  0b14 88            	push	a
4341  0b15 1e0e          	ldw	x,(OFST+6,sp)
4342  0b17 72fb08        	addw	x,(OFST+0,sp)
4343  0b1a 89            	pushw	x
4344  0b1b 1e0c          	ldw	x,(OFST+4,sp)
4345  0b1d 72fb08        	addw	x,(OFST+0,sp)
4346  0b20 89            	pushw	x
4347  0b21 1e12          	ldw	x,(OFST+10,sp)
4348  0b23 72fb0c        	addw	x,(OFST+4,sp)
4349  0b26 89            	pushw	x
4350  0b27 1e10          	ldw	x,(OFST+8,sp)
4351  0b29 72f00c        	subw	x,(OFST+4,sp)
4352  0b2c cd08e8        	call	_Draw_Line
4354  0b2f 5b07          	addw	sp,#7
4355                     ; 564            Draw_Line((xc - b), (yc - a), (xc + b), (yc - a), colour);
4357  0b31 7b12          	ld	a,(OFST+10,sp)
4358  0b33 88            	push	a
4359  0b34 1e0e          	ldw	x,(OFST+6,sp)
4360  0b36 72f008        	subw	x,(OFST+0,sp)
4361  0b39 89            	pushw	x
4362  0b3a 1e0c          	ldw	x,(OFST+4,sp)
4363  0b3c 72fb08        	addw	x,(OFST+0,sp)
4364  0b3f 89            	pushw	x
4365  0b40 1e12          	ldw	x,(OFST+10,sp)
4366  0b42 72f00c        	subw	x,(OFST+4,sp)
4367  0b45 89            	pushw	x
4368  0b46 1e10          	ldw	x,(OFST+8,sp)
4369  0b48 72f00c        	subw	x,(OFST+4,sp)
4370  0b4b cd08e8        	call	_Draw_Line
4372  0b4e 5b07          	addw	sp,#7
4374  0b50 acdc0bdc      	jpf	L7511
4375  0b54               L5511:
4376                     ; 568            Draw_Pixel((xc + a), (yc + b), colour);
4378  0b54 7b12          	ld	a,(OFST+10,sp)
4379  0b56 88            	push	a
4380  0b57 7b07          	ld	a,(OFST-1,sp)
4381  0b59 1b0f          	add	a,(OFST+7,sp)
4382  0b5b 97            	ld	xl,a
4383  0b5c 7b09          	ld	a,(OFST+1,sp)
4384  0b5e 1b0b          	add	a,(OFST+3,sp)
4385  0b60 95            	ld	xh,a
4386  0b61 cd086d        	call	_Draw_Pixel
4388  0b64 84            	pop	a
4389                     ; 569            Draw_Pixel((xc + b), (yc + a), colour);
4391  0b65 7b12          	ld	a,(OFST+10,sp)
4392  0b67 88            	push	a
4393  0b68 7b09          	ld	a,(OFST+1,sp)
4394  0b6a 1b0f          	add	a,(OFST+7,sp)
4395  0b6c 97            	ld	xl,a
4396  0b6d 7b07          	ld	a,(OFST-1,sp)
4397  0b6f 1b0b          	add	a,(OFST+3,sp)
4398  0b71 95            	ld	xh,a
4399  0b72 cd086d        	call	_Draw_Pixel
4401  0b75 84            	pop	a
4402                     ; 570            Draw_Pixel((xc - a), (yc + b), colour);
4404  0b76 7b12          	ld	a,(OFST+10,sp)
4405  0b78 88            	push	a
4406  0b79 7b07          	ld	a,(OFST-1,sp)
4407  0b7b 1b0f          	add	a,(OFST+7,sp)
4408  0b7d 97            	ld	xl,a
4409  0b7e 7b0b          	ld	a,(OFST+3,sp)
4410  0b80 1009          	sub	a,(OFST+1,sp)
4411  0b82 95            	ld	xh,a
4412  0b83 cd086d        	call	_Draw_Pixel
4414  0b86 84            	pop	a
4415                     ; 571            Draw_Pixel((xc - b), (yc + a), colour);
4417  0b87 7b12          	ld	a,(OFST+10,sp)
4418  0b89 88            	push	a
4419  0b8a 7b09          	ld	a,(OFST+1,sp)
4420  0b8c 1b0f          	add	a,(OFST+7,sp)
4421  0b8e 97            	ld	xl,a
4422  0b8f 7b0b          	ld	a,(OFST+3,sp)
4423  0b91 1007          	sub	a,(OFST-1,sp)
4424  0b93 95            	ld	xh,a
4425  0b94 cd086d        	call	_Draw_Pixel
4427  0b97 84            	pop	a
4428                     ; 572            Draw_Pixel((xc + b), (yc - a), colour);
4430  0b98 7b12          	ld	a,(OFST+10,sp)
4431  0b9a 88            	push	a
4432  0b9b 7b0f          	ld	a,(OFST+7,sp)
4433  0b9d 1009          	sub	a,(OFST+1,sp)
4434  0b9f 97            	ld	xl,a
4435  0ba0 7b07          	ld	a,(OFST-1,sp)
4436  0ba2 1b0b          	add	a,(OFST+3,sp)
4437  0ba4 95            	ld	xh,a
4438  0ba5 cd086d        	call	_Draw_Pixel
4440  0ba8 84            	pop	a
4441                     ; 573            Draw_Pixel((xc + a), (yc - b), colour);
4443  0ba9 7b12          	ld	a,(OFST+10,sp)
4444  0bab 88            	push	a
4445  0bac 7b0f          	ld	a,(OFST+7,sp)
4446  0bae 1007          	sub	a,(OFST-1,sp)
4447  0bb0 97            	ld	xl,a
4448  0bb1 7b09          	ld	a,(OFST+1,sp)
4449  0bb3 1b0b          	add	a,(OFST+3,sp)
4450  0bb5 95            	ld	xh,a
4451  0bb6 cd086d        	call	_Draw_Pixel
4453  0bb9 84            	pop	a
4454                     ; 574            Draw_Pixel((xc - a), (yc - b), colour);
4456  0bba 7b12          	ld	a,(OFST+10,sp)
4457  0bbc 88            	push	a
4458  0bbd 7b0f          	ld	a,(OFST+7,sp)
4459  0bbf 1007          	sub	a,(OFST-1,sp)
4460  0bc1 97            	ld	xl,a
4461  0bc2 7b0b          	ld	a,(OFST+3,sp)
4462  0bc4 1009          	sub	a,(OFST+1,sp)
4463  0bc6 95            	ld	xh,a
4464  0bc7 cd086d        	call	_Draw_Pixel
4466  0bca 84            	pop	a
4467                     ; 575            Draw_Pixel((xc - b), (yc - a), colour);
4469  0bcb 7b12          	ld	a,(OFST+10,sp)
4470  0bcd 88            	push	a
4471  0bce 7b0f          	ld	a,(OFST+7,sp)
4472  0bd0 1009          	sub	a,(OFST+1,sp)
4473  0bd2 97            	ld	xl,a
4474  0bd3 7b0b          	ld	a,(OFST+3,sp)
4475  0bd5 1007          	sub	a,(OFST-1,sp)
4476  0bd7 95            	ld	xh,a
4477  0bd8 cd086d        	call	_Draw_Pixel
4479  0bdb 84            	pop	a
4480  0bdc               L7511:
4481                     ; 578         if(P < 0)
4483  0bdc 9c            	rvf
4484  0bdd 1e03          	ldw	x,(OFST-5,sp)
4485  0bdf 2e15          	jrsge	L1611
4486                     ; 580            P += (3 + (2 * a++));
4488  0be1 1e07          	ldw	x,(OFST-1,sp)
4489  0be3 1c0001        	addw	x,#1
4490  0be6 1f07          	ldw	(OFST-1,sp),x
4491  0be8 1d0001        	subw	x,#1
4493  0beb 58            	sllw	x
4494  0bec 1c0003        	addw	x,#3
4495  0bef 72fb03        	addw	x,(OFST-5,sp)
4496  0bf2 1f03          	ldw	(OFST-5,sp),x
4499  0bf4 2022          	jra	L1511
4500  0bf6               L1611:
4501                     ; 584            P += (5 + (2 * ((a++) - (b--))));
4503  0bf6 1e05          	ldw	x,(OFST-3,sp)
4504  0bf8 1d0001        	subw	x,#1
4505  0bfb 1f05          	ldw	(OFST-3,sp),x
4506  0bfd 1c0001        	addw	x,#1
4508  0c00 1f01          	ldw	(OFST-7,sp),x
4510  0c02 1e07          	ldw	x,(OFST-1,sp)
4511  0c04 1c0001        	addw	x,#1
4512  0c07 1f07          	ldw	(OFST-1,sp),x
4513  0c09 1d0001        	subw	x,#1
4515  0c0c 72f001        	subw	x,(OFST-7,sp)
4516  0c0f 58            	sllw	x
4517  0c10 1c0005        	addw	x,#5
4518  0c13 72fb03        	addw	x,(OFST-5,sp)
4519  0c16 1f03          	ldw	(OFST-5,sp),x
4521  0c18               L1511:
4522                     ; 586     }while(a <= b);
4524  0c18 9c            	rvf
4525  0c19 1e07          	ldw	x,(OFST-1,sp)
4526  0c1b 1305          	cpw	x,(OFST-3,sp)
4527  0c1d 2c03          	jrsgt	L601
4528  0c1f cc0acd        	jp	L7411
4529  0c22               L601:
4530                     ; 587 }
4533  0c22 5b0a          	addw	sp,#10
4534  0c24 81            	ret
4547                     	xdef	_Draw_Circle
4548                     	xdef	_Draw_Rectangle
4549                     	xdef	_Draw_Line
4550                     	xdef	_Draw_Pixel
4551                     	xdef	_OLED_print_float
4552                     	xdef	_OLED_print_decimal
4553                     	xdef	_OLED_print_int
4554                     	xdef	_OLED_print_chr
4555                     	xdef	_OLED_print_string
4556                     	xdef	_OLED_print_char
4557                     	xdef	_OLED_draw_bitmap
4558                     	xdef	_OLED_cursor
4559                     	xdef	_OLED_clear_buffer
4560                     	xdef	_OLED_clear_screen
4561                     	xdef	_OLED_fill
4562                     	xdef	_OLED_gotoxy
4563                     	xdef	_OLED_write
4564                     	xdef	_OLED_reset
4565                     	xdef	_OLED_init
4566                     	xdef	_OLED_HW_setup
4567                     	xref	_buffer
4568                     	xref	_delay_ms
4569                     	xref	_GPIO_WriteLow
4570                     	xref	_GPIO_WriteHigh
4571                     	xref	_GPIO_Init
4572                     	xref	_GPIO_DeInit
4573                     	switch	.const
4574  024a               L136:
4575  024a 461c4000      	dc.w	17948,16384
4576                     	xref.b	c_lreg
4577                     	xref.b	c_x
4597                     	xref	c_ctof
4598                     	xref	c_fcmp
4599                     	xref	c_itof
4600                     	xref	c_fmul
4601                     	xref	c_fsub
4602                     	xref	c_ltof
4603                     	xref	c_rtol
4604                     	xref	c_ftol
4605                     	xref	c_lmod
4606                     	xref	c_ladc
4607                     	xref	c_ldiv
4608                     	xref	c_lcmp
4609                     	xref	c_ltor
4610                     	xref	c_lgneg
4611                     	xref	c_smodx
4612                     	xref	c_sdivx
4613                     	xref	c_xymvx
4614                     	xref	c_bmulx
4615                     	end
